   1               		.file	"main.c"
   2               	__SP_H__ = 0x3e
   3               	__SP_L__ = 0x3d
   4               	__SREG__ = 0x3f
   5               	__tmp_reg__ = 0
   6               	__zero_reg__ = 1
   7               		.text
   8               	.Ltext0:
   9               		.cfi_sections	.debug_frame
  10               		.section	.text.ShootP1,"ax",@progbits
  11               	.global	ShootP1
  13               	ShootP1:
  14               	.LFB73:
  15               		.file 1 "../src/main.c"
   1:../src/main.c **** #include <asf.h>
   2:../src/main.c **** #include <stdint.h>
   3:../src/main.c **** #define F_CPU 16000000UL // Defining the CPU Frequency
   4:../src/main.c **** #include <stdio.h>
   5:../src/main.c **** #include <inttypes.h>
   6:../src/main.c **** #define __DELAY_BACKWARD_COMPATIBLE__
   7:../src/main.c **** #include <util/delay.h>
   8:../src/main.c **** 
   9:../src/main.c **** 
  10:../src/main.c **** #include "UART.h"
  11:../src/main.c **** #include "ADC.h"
  12:../src/main.c **** #include "Timer.h"
  13:../src/main.c **** #include "JoystickButton.h"
  14:../src/main.c **** #include "C_CheckByte.h"
  15:../src/main.c **** #include "Display_ss.h"
  16:../src/main.c **** #include <stdlib.h>
  17:../src/main.c **** #include <string.h>
  18:../src/main.c **** //extern uint8_t JoystickButton(void);
  19:../src/main.c **** /*
  20:../src/main.c **** GccWS2812_V3
  21:../src/main.c **** This version works like the assembly version "ws2812 efecto1"
  22:../src/main.c **** The main differences are:
  23:../src/main.c **** 1- The Assembly code is the same but the compiler is the GCC version
  24:../src/main.c ****    so pay attention to the differences.
  25:../src/main.c **** Eg.: .equ is replaced by #define , HIGH and LOW is replaced by hi8 and lo8
  26:../src/main.c ****      The argument of the latter macros (hi8,lo8) is not more 2*Address_Label
  27:../src/main.c **** 	 #define __SFR_OFFSET 0 must be defined
  28:../src/main.c **** 	 Macros syntax is different
  29:../src/main.c **** 	 .def is replaced with #define 
  30:../src/main.c **** 	 Tables in program segment are defined using .byte (not .db)
  31:../src/main.c **** */
  32:../src/main.c **** 
  33:../src/main.c **** 
  34:../src/main.c **** 
  35:../src/main.c **** typedef struct 
  36:../src/main.c **** 		{
  37:../src/main.c **** 			uint8_t green;   // WS2812 order (GRB)
  38:../src/main.c **** 			uint8_t red;
  39:../src/main.c **** 			uint8_t blue;
  40:../src/main.c **** 		} RGBled;
  41:../src/main.c **** 		
  42:../src/main.c **** 
  43:../src/main.c **** 
  44:../src/main.c **** typedef RGBled (*P2RGB) ;
  45:../src/main.c **** 
  46:../src/main.c **** // Variables
  47:../src/main.c **** 
  48:../src/main.c **** P2RGB p2disp;
  49:../src/main.c **** 
  50:../src/main.c **** RGBled disparado={100,0,0}; // DISPARADO VERDE
  51:../src/main.c **** RGBled hundido={0,100,0}; // HUNDIDO ROJO
  52:../src/main.c **** RGBled agua={0,0,100}; // AGUA AZUL
  53:../src/main.c **** RGBled tocado={100,100,25}; // TOCADO AMARILLO
  54:../src/main.c **** RGBled Apagado={0,0,0}; // LED APAGADO
  55:../src/main.c **** RGBled punteroP1 = {25, 15, 0}; // PUNTERO DEL JOYSTICK
  56:../src/main.c **** RGBled punteroP2 = {40, 5, 25}; // PUNTERO DEL JOYSTICK
  57:../src/main.c **** RGBled Matriz_RGB[8][8];
  58:../src/main.c **** 
  59:../src/main.c **** #define submarine (1<<6)
  60:../src/main.c **** #define cargoBoat (1<<7)
  61:../src/main.c **** #define Turn1 1
  62:../src/main.c **** #define Turn2 2
  63:../src/main.c **** 
  64:../src/main.c **** volatile uint16_t ContadorPuntero;
  65:../src/main.c **** 
  66:../src/main.c **** const uint16_t derecha_min = 800;
  67:../src/main.c **** const uint16_t derecha_max = 1023;
  68:../src/main.c **** const uint16_t izquierda_min = 200;
  69:../src/main.c **** const uint16_t izquierda_max = 0;
  70:../src/main.c **** const uint16_t abajo_min = 800;
  71:../src/main.c **** const uint16_t abajo_max = 1023;
  72:../src/main.c **** const uint16_t arriba_min = 200;
  73:../src/main.c **** const uint16_t arriba_max = 0;	
  74:../src/main.c **** 	
  75:../src/main.c **** 
  76:../src/main.c **** 		
  77:../src/main.c **** // Assembly function
  78:../src/main.c **** extern void init_ws2812(void);
  79:../src/main.c **** extern void wrt_ws2812(P2RGB);
  80:../src/main.c **** 
  81:../src/main.c **** // Local prototypes
  82:../src/main.c **** void softdelay(void);
  83:../src/main.c **** void clear_disp(void);
  84:../src/main.c **** char msg[] = "Hello from ATmega328p\r\n  ";
  85:../src/main.c **** 
  86:../src/main.c **** // Numeros de coordenadas que maneja el joystick.
  87:../src/main.c **** volatile uint16_t ijoy; //filas
  88:../src/main.c **** volatile uint16_t jjoy; //columnas
  89:../src/main.c **** 
  90:../src/main.c **** // Numeros que representan los hits que han hecho cada player
  91:../src/main.c **** volatile uint8_t Player1_Hits;
  92:../src/main.c **** volatile uint8_t Player2_Hits;
  93:../src/main.c **** 
  94:../src/main.c **** // Prototypes Display
  95:../src/main.c **** void display_init(void);
  96:../src/main.c **** void set_P1(void);
  97:../src/main.c **** void set_P2(void);
  98:../src/main.c **** 
  99:../src/main.c **** // Matrices que representan el tablero de cada jugador.
 100:../src/main.c **** RGBled Matriz_P1[8][8]; //matriz jugador 1
 101:../src/main.c **** RGBled Matriz_P2[8][8]; //matriz jugador 2
 102:../src/main.c **** 
 103:../src/main.c **** // Funciones locales referentes al juego
 104:../src/main.c **** void embarcacion(char b[3]);
 105:../src/main.c **** void Game_Logic(void);
 106:../src/main.c **** void TurnoP1(void);
 107:../src/main.c **** void TurnoP2(void);
 108:../src/main.c **** void Mostrar_Matriz_1(void);
 109:../src/main.c **** void Mostrar_Matriz_2(void); 
 110:../src/main.c **** void ShootP1(void);
 111:../src/main.c **** void ShootP2(void);
 112:../src/main.c **** 
 113:../src/main.c **** 
 114:../src/main.c **** extern void joybutton_Init(void);
 115:../src/main.c **** 
 116:../src/main.c **** uint8_t button_press(void);
 117:../src/main.c **** volatile int ispressed;
 118:../src/main.c **** 
 119:../src/main.c **** volatile uint8_t Turno;
 120:../src/main.c **** 
 121:../src/main.c **** 
 122:../src/main.c **** 
 123:../src/main.c **** int main (void)
 124:../src/main.c **** {
 125:../src/main.c **** 			init_ws2812();		//Initialize RGB Display driver
 126:../src/main.c **** 			init_RTI();			//Initialize Periodic Real Time Interrupt(Timer)
 127:../src/main.c **** 			UART_Init();		//Initialize serial port driver (UART)
 128:../src/main.c **** 			adc_init();			//Initialize Analog to digital converter (Joystick)
 129:../src/main.c **** 			joybutton_Init();
 130:../src/main.c **** 			display_init();
 131:../src/main.c **** 		
 132:../src/main.c **** 			p2disp=&Matriz_RGB[0][0];
 133:../src/main.c **** 			
 134:../src/main.c **** 			
 135:../src/main.c **** 		for(int r=0;r<=7;r++)
 136:../src/main.c **** 			for(int c=0;c<=7;c++)
 137:../src/main.c **** 				Matriz_RGB[r][c]=Apagado;
 138:../src/main.c **** 				
 139:../src/main.c **** 		UART_putstring("Hola");
 140:../src/main.c ****  			
 141:../src/main.c ****  		for(int r=0;r<=7;r++)
 142:../src/main.c **** 			for(int c=0;c<=7;c++)
 143:../src/main.c **** 				Matriz_P1[r][c]=Apagado;
 144:../src/main.c **** 			
 145:../src/main.c **** 			for(int r=0;r<=7;r++)
 146:../src/main.c **** 				for(int c=0;c<=7;c++)
 147:../src/main.c **** 					Matriz_P2[r][c]=Apagado;
 148:../src/main.c **** 					
 149:../src/main.c **** 		clear_disp();
 150:../src/main.c **** 					
 151:../src/main.c **** // 		for( k=0;k<=7;k++)
 152:../src/main.c **** // 			{
 153:../src/main.c **** // 			Matriz_P1[k][0]=tocado;
 154:../src/main.c **** // 			Matriz_P1[k][4]=tocado;
 155:../src/main.c **** // 			Matriz_P1[k][7]=tocado;
 156:../src/main.c **** // 			}
 157:../src/main.c **** // 			
 158:../src/main.c **** // 		for( k=0;k<=7;k++)
 159:../src/main.c **** // 			{
 160:../src/main.c **** // 			Matriz_P2[k][0]=hundido;
 161:../src/main.c **** // 			Matriz_P2[k][4]=hundido;
 162:../src/main.c **** // 			Matriz_P2[k][7]=hundido;
 163:../src/main.c **** // 			}
 164:../src/main.c **** 			
 165:../src/main.c **** 			
 166:../src/main.c **** 			
 167:../src/main.c **** 			sei();					// Enable global Interrupts
 168:../src/main.c **** 
 169:../src/main.c **** 			while(1)
 170:../src/main.c **** 			{
 171:../src/main.c **** 				Game_Logic();
 172:../src/main.c **** 			}
 173:../src/main.c **** }
 174:../src/main.c **** 
 175:../src/main.c **** 
 176:../src/main.c **** void ShootP1 (void)
 177:../src/main.c **** {
  16               		.loc 1 177 0
  17               		.cfi_startproc
  18               	/* prologue: function */
  19               	/* frame size = 0 */
  20               	/* stack size = 0 */
  21               	.L__stack_usage = 0
 178:../src/main.c **** 	Matriz_P2[ijoy][jjoy] = hundido;
  22               		.loc 1 178 0
  23 0000 8091 0000 		lds r24,ijoy
  24 0004 9091 0000 		lds r25,ijoy+1
  25 0008 E091 0000 		lds r30,jjoy
  26 000c F091 0000 		lds r31,jjoy+1
  27 0010 9F01      		movw r18,r30
  28 0012 220F      		lsl r18
  29 0014 331F      		rol r19
  30 0016 E20F      		add r30,r18
  31 0018 F31F      		adc r31,r19
  32 001a 9C01      		movw r18,r24
  33 001c 220F      		lsl r18
  34 001e 331F      		rol r19
  35 0020 820F      		add r24,r18
  36 0022 931F      		adc r25,r19
  37 0024 880F      		lsl r24
  38 0026 991F      		rol r25
  39 0028 880F      		lsl r24
  40 002a 991F      		rol r25
  41 002c 880F      		lsl r24
  42 002e 991F      		rol r25
  43 0030 E80F      		add r30,r24
  44 0032 F91F      		adc r31,r25
  45 0034 E050      		subi r30,lo8(-(Matriz_P2))
  46 0036 F040      		sbci r31,hi8(-(Matriz_P2))
  47 0038 8091 0000 		lds r24,hundido
  48 003c 9091 0000 		lds r25,hundido+1
  49 0040 A091 0000 		lds r26,hundido+2
  50 0044 8083      		st Z,r24
  51 0046 9183      		std Z+1,r25
  52 0048 A283      		std Z+2,r26
 179:../src/main.c **** 	Player1_Hits += 1;
  53               		.loc 1 179 0
  54 004a 8091 0000 		lds r24,Player1_Hits
  55 004e 8F5F      		subi r24,lo8(-(1))
  56 0050 8093 0000 		sts Player1_Hits,r24
  57 0054 0895      		ret
  58               		.cfi_endproc
  59               	.LFE73:
  61               		.section	.text.ShootP2,"ax",@progbits
  62               	.global	ShootP2
  64               	ShootP2:
  65               	.LFB74:
 180:../src/main.c **** }
 181:../src/main.c **** 
 182:../src/main.c **** void ShootP2 (void)
 183:../src/main.c **** {
  66               		.loc 1 183 0
  67               		.cfi_startproc
  68               	/* prologue: function */
  69               	/* frame size = 0 */
  70               	/* stack size = 0 */
  71               	.L__stack_usage = 0
 184:../src/main.c **** 	Matriz_P1[ijoy][jjoy] = hundido;
  72               		.loc 1 184 0
  73 0000 8091 0000 		lds r24,ijoy
  74 0004 9091 0000 		lds r25,ijoy+1
  75 0008 E091 0000 		lds r30,jjoy
  76 000c F091 0000 		lds r31,jjoy+1
  77 0010 9F01      		movw r18,r30
  78 0012 220F      		lsl r18
  79 0014 331F      		rol r19
  80 0016 E20F      		add r30,r18
  81 0018 F31F      		adc r31,r19
  82 001a 9C01      		movw r18,r24
  83 001c 220F      		lsl r18
  84 001e 331F      		rol r19
  85 0020 820F      		add r24,r18
  86 0022 931F      		adc r25,r19
  87 0024 880F      		lsl r24
  88 0026 991F      		rol r25
  89 0028 880F      		lsl r24
  90 002a 991F      		rol r25
  91 002c 880F      		lsl r24
  92 002e 991F      		rol r25
  93 0030 E80F      		add r30,r24
  94 0032 F91F      		adc r31,r25
  95 0034 E050      		subi r30,lo8(-(Matriz_P1))
  96 0036 F040      		sbci r31,hi8(-(Matriz_P1))
  97 0038 8091 0000 		lds r24,hundido
  98 003c 9091 0000 		lds r25,hundido+1
  99 0040 A091 0000 		lds r26,hundido+2
 100 0044 8083      		st Z,r24
 101 0046 9183      		std Z+1,r25
 102 0048 A283      		std Z+2,r26
 185:../src/main.c **** 	Player2_Hits += 1;
 103               		.loc 1 185 0
 104 004a 8091 0000 		lds r24,Player2_Hits
 105 004e 8F5F      		subi r24,lo8(-(1))
 106 0050 8093 0000 		sts Player2_Hits,r24
 107 0054 0895      		ret
 108               		.cfi_endproc
 109               	.LFE74:
 111               		.section	.text.Mostrar_Matriz_2,"ax",@progbits
 112               	.global	Mostrar_Matriz_2
 114               	Mostrar_Matriz_2:
 115               	.LFB78:
 186:../src/main.c **** }
 187:../src/main.c **** 
 188:../src/main.c **** 
 189:../src/main.c **** void Game_Logic(void)
 190:../src/main.c **** {
 191:../src/main.c **** 	if (Turno == Turn1)
 192:../src/main.c **** 	{
 193:../src/main.c **** 		TurnoP1();
 194:../src/main.c **** 	}
 195:../src/main.c **** 		
 196:../src/main.c **** 	else if (Turno == Turn2)
 197:../src/main.c **** 	{
 198:../src/main.c **** 		TurnoP2();
 199:../src/main.c **** 	}
 200:../src/main.c **** }
 201:../src/main.c **** 
 202:../src/main.c **** void TurnoP1(void)
 203:../src/main.c **** {
 204:../src/main.c **** 	set_P1();
 205:../src/main.c **** 	ispressed = 1;
 206:../src/main.c **** 	while (ispressed != 0)
 207:../src/main.c **** 	{
 208:../src/main.c **** 		if (ContadorPuntero < 90)
 209:../src/main.c **** 		{
 210:../src/main.c **** 			Mostrar_Matriz_2();
 211:../src/main.c **** 			Matriz_RGB[ijoy][jjoy] = punteroP1;
 212:../src/main.c **** 			_delay_ms(50);
 213:../src/main.c **** 			wrt_ws2812(p2disp);
 214:../src/main.c **** 		}
 215:../src/main.c **** 		
 216:../src/main.c **** 		else
 217:../src/main.c **** 		{
 218:../src/main.c **** 			Mostrar_Matriz_2();
 219:../src/main.c **** 			_delay_ms(50);
 220:../src/main.c **** 			wrt_ws2812(p2disp);
 221:../src/main.c **** 		}
 222:../src/main.c **** 	}
 223:../src/main.c **** 	
 224:../src/main.c **** 	clear_disp();
 225:../src/main.c **** 	ShootP1();
 226:../src/main.c **** 	Mostrar_Matriz_2();
 227:../src/main.c **** 	
 228:../src/main.c **** 	_delay_ms(20);
 229:../src/main.c **** 	wrt_ws2812(p2disp);
 230:../src/main.c **** 	_delay_ms(2000);
 231:../src/main.c **** }
 232:../src/main.c **** 
 233:../src/main.c **** void TurnoP2(void)
 234:../src/main.c **** {
 235:../src/main.c **** 	set_P2();
 236:../src/main.c **** 	ispressed = 1;
 237:../src/main.c **** 	while (ispressed != 0)
 238:../src/main.c **** 	{
 239:../src/main.c **** 		if (ContadorPuntero < 90)
 240:../src/main.c **** 		{
 241:../src/main.c **** 			Mostrar_Matriz_1();
 242:../src/main.c **** 			Matriz_RGB[ijoy][jjoy] = punteroP2;
 243:../src/main.c **** 			_delay_ms(50);
 244:../src/main.c **** 			wrt_ws2812(p2disp);
 245:../src/main.c **** 		}
 246:../src/main.c **** 		
 247:../src/main.c **** 		else
 248:../src/main.c **** 		{
 249:../src/main.c **** 			Mostrar_Matriz_1();
 250:../src/main.c **** 			_delay_ms(50);
 251:../src/main.c **** 			wrt_ws2812(p2disp);
 252:../src/main.c **** 		}
 253:../src/main.c **** 	}
 254:../src/main.c **** 	
 255:../src/main.c **** 	clear_disp();
 256:../src/main.c **** 	ShootP2();
 257:../src/main.c **** 	Mostrar_Matriz_1();
 258:../src/main.c **** 	
 259:../src/main.c **** 	_delay_ms(20);
 260:../src/main.c **** 	wrt_ws2812(p2disp);
 261:../src/main.c **** 	_delay_ms(2000);
 262:../src/main.c **** }
 263:../src/main.c **** 
 264:../src/main.c **** 
 265:../src/main.c **** void Mostrar_Matriz_2(void)
 266:../src/main.c **** {
 116               		.loc 1 266 0
 117               		.cfi_startproc
 118 0000 CF93      		push r28
 119               	.LCFI0:
 120               		.cfi_def_cfa_offset 3
 121               		.cfi_offset 28, -2
 122 0002 DF93      		push r29
 123               	.LCFI1:
 124               		.cfi_def_cfa_offset 4
 125               		.cfi_offset 29, -3
 126               	/* prologue: function */
 127               	/* frame size = 0 */
 128               	/* stack size = 2 */
 129               	.L__stack_usage = 2
 130               	.LVL0:
 131 0004 E0E0      		ldi r30,lo8(Matriz_P2)
 132 0006 F0E0      		ldi r31,hi8(Matriz_P2)
 133 0008 60E0      		ldi r22,lo8(Matriz_RGB)
 134 000a 70E0      		ldi r23,hi8(Matriz_RGB)
 135 000c C0E0      		ldi r28,lo8(Matriz_P2+192)
 136 000e D0E0      		ldi r29,hi8(Matriz_P2+192)
 137 0010 00C0      		rjmp .L4
 138               	.LVL1:
 139               	.L5:
 140               	.LBB54:
 141               	.LBB55:
 267:../src/main.c **** 	for (int i=0; i<=7; i++)
 268:../src/main.c **** 		for (int j=0; j<=7; j++)
 269:../src/main.c **** 			Matriz_RGB[i][j] = Matriz_P2[i][j];
 142               		.loc 1 269 0 discriminator 3
 143 0012 2191      		ld r18,Z+
 144 0014 3191      		ld r19,Z+
 145 0016 4191      		ld r20,Z+
 146 0018 2D93      		st X+,r18
 147 001a 3D93      		st X+,r19
 148 001c 4D93      		st X+,r20
 149               	.LVL2:
 268:../src/main.c **** 			Matriz_RGB[i][j] = Matriz_P2[i][j];
 150               		.loc 1 268 0 discriminator 3
 151 001e E817      		cp r30,r24
 152 0020 F907      		cpc r31,r25
 153 0022 01F4      		brne .L5
 154 0024 685E      		subi r22,-24
 155 0026 7F4F      		sbci r23,-1
 156 0028 FC01      		movw r30,r24
 157               	.LBE55:
 267:../src/main.c **** 	for (int i=0; i<=7; i++)
 158               		.loc 1 267 0 discriminator 2
 159 002a C817      		cp r28,r24
 160 002c D907      		cpc r29,r25
 161 002e 01F0      		breq .L3
 162               	.L4:
 163               	.LVL3:
 164 0030 CF01      		movw r24,r30
 165 0032 4896      		adiw r24,24
 166               	.LBE54:
 266:../src/main.c **** 	for (int i=0; i<=7; i++)
 167               		.loc 1 266 0 discriminator 1
 168 0034 DB01      		movw r26,r22
 169 0036 00C0      		rjmp .L5
 170               	.LVL4:
 171               	.L3:
 172               	/* epilogue start */
 270:../src/main.c **** }
 173               		.loc 1 270 0
 174 0038 DF91      		pop r29
 175 003a CF91      		pop r28
 176 003c 0895      		ret
 177               		.cfi_endproc
 178               	.LFE78:
 180               		.section	.text.Mostrar_Matriz_1,"ax",@progbits
 181               	.global	Mostrar_Matriz_1
 183               	Mostrar_Matriz_1:
 184               	.LFB79:
 271:../src/main.c **** 
 272:../src/main.c **** void Mostrar_Matriz_1(void)
 273:../src/main.c **** {
 185               		.loc 1 273 0
 186               		.cfi_startproc
 187 0000 CF93      		push r28
 188               	.LCFI2:
 189               		.cfi_def_cfa_offset 3
 190               		.cfi_offset 28, -2
 191 0002 DF93      		push r29
 192               	.LCFI3:
 193               		.cfi_def_cfa_offset 4
 194               		.cfi_offset 29, -3
 195               	/* prologue: function */
 196               	/* frame size = 0 */
 197               	/* stack size = 2 */
 198               	.L__stack_usage = 2
 199               	.LVL5:
 200 0004 E0E0      		ldi r30,lo8(Matriz_P1)
 201 0006 F0E0      		ldi r31,hi8(Matriz_P1)
 202 0008 60E0      		ldi r22,lo8(Matriz_RGB)
 203 000a 70E0      		ldi r23,hi8(Matriz_RGB)
 204 000c C0E0      		ldi r28,lo8(Matriz_P1+192)
 205 000e D0E0      		ldi r29,hi8(Matriz_P1+192)
 206 0010 00C0      		rjmp .L9
 207               	.LVL6:
 208               	.L10:
 209               	.LBB56:
 210               	.LBB57:
 274:../src/main.c **** 	for (int i=0; i<=7; i++)
 275:../src/main.c **** 		for (int j=0; j<=7; j++)
 276:../src/main.c **** 			Matriz_RGB[i][j] = Matriz_P1[i][j];
 211               		.loc 1 276 0 discriminator 3
 212 0012 2191      		ld r18,Z+
 213 0014 3191      		ld r19,Z+
 214 0016 4191      		ld r20,Z+
 215 0018 2D93      		st X+,r18
 216 001a 3D93      		st X+,r19
 217 001c 4D93      		st X+,r20
 218               	.LVL7:
 275:../src/main.c **** 			Matriz_RGB[i][j] = Matriz_P1[i][j];
 219               		.loc 1 275 0 discriminator 3
 220 001e E817      		cp r30,r24
 221 0020 F907      		cpc r31,r25
 222 0022 01F4      		brne .L10
 223 0024 685E      		subi r22,-24
 224 0026 7F4F      		sbci r23,-1
 225 0028 FC01      		movw r30,r24
 226               	.LBE57:
 274:../src/main.c **** 	for (int i=0; i<=7; i++)
 227               		.loc 1 274 0 discriminator 2
 228 002a C817      		cp r28,r24
 229 002c D907      		cpc r29,r25
 230 002e 01F0      		breq .L8
 231               	.L9:
 232               	.LVL8:
 233 0030 CF01      		movw r24,r30
 234 0032 4896      		adiw r24,24
 235               	.LBE56:
 273:../src/main.c **** 	for (int i=0; i<=7; i++)
 236               		.loc 1 273 0 discriminator 1
 237 0034 DB01      		movw r26,r22
 238 0036 00C0      		rjmp .L10
 239               	.LVL9:
 240               	.L8:
 241               	/* epilogue start */
 277:../src/main.c **** }
 242               		.loc 1 277 0
 243 0038 DF91      		pop r29
 244 003a CF91      		pop r28
 245 003c 0895      		ret
 246               		.cfi_endproc
 247               	.LFE79:
 249               		.section	.text.clear_disp,"ax",@progbits
 250               	.global	clear_disp
 252               	clear_disp:
 253               	.LFB80:
 278:../src/main.c **** 
 279:../src/main.c **** 
 280:../src/main.c **** /*
 281:../src/main.c **** void embarcacion(char b[3])
 282:../src/main.c **** {
 283:../src/main.c **** 	int i, j;
 284:../src/main.c **** //	int x=65, y=0;
 285:../src/main.c **** 	for(i=0; i<3;)
 286:../src/main.c **** 	{
 287:../src/main.c **** 		//printf("LA UBICACION DEl BARCO %i: ",(x, y));
 288:../src/main.c **** 		//scanf("%c",&b[i]);         // lee lo que se ingresa por teclado.
 289:../src/main.c **** 		//fflush(stdin);             // limpia el buffer de entrada (lo que se ingresa por teclado).
 290:../src/main.c **** 		if (b[i]>=65 && b[i]<=72)  // De A a H código ascii.
 291:../src/main.c **** 		{
 292:../src/main.c **** 			x=b[i];
 293:../src/main.c **** 			if(b[j]>=0 && b[j]<=7); // De 0 a 7
 294:../src/main.c **** 			{
 295:../src/main.c **** 				y=b[j];
 296:../src/main.c **** 			}
 297:../src/main.c **** 		}
 298:../src/main.c **** 		//else if printf("INGRESA UNA LETRA QUE SE ENCUENTRE DENTRO DEL TABLERO\n");
 299:../src/main.c **** 		//else if printf("INGRESA UN NÚMERO QUE SE ENCUENTRE DENTRO DEL TABLERO\n");
 300:../src/main.c **** 
 301:../src/main.c **** 		
 302:../src/main.c **** 	}
 303:../src/main.c **** }
 304:../src/main.c **** */
 305:../src/main.c **** 
 306:../src/main.c **** void clear_disp(void)
 307:../src/main.c **** {
 254               		.loc 1 307 0
 255               		.cfi_startproc
 256               	/* prologue: function */
 257               	/* frame size = 0 */
 258               	/* stack size = 0 */
 259               	.L__stack_usage = 0
 308:../src/main.c **** 	cli();
 260               		.loc 1 308 0
 261               	/* #APP */
 262               	 ;  308 "../src/main.c" 1
 263 0000 F894      		cli
 264               	 ;  0 "" 2
 265               	.LVL10:
 266               	/* #NOAPP */
 267 0002 E0E0      		ldi r30,lo8(Matriz_RGB)
 268 0004 F0E0      		ldi r31,hi8(Matriz_RGB)
 269 0006 40E0      		ldi r20,lo8(Matriz_RGB+192)
 270 0008 50E0      		ldi r21,hi8(Matriz_RGB+192)
 271 000a 00C0      		rjmp .L14
 272               	.LVL11:
 273               	.L15:
 274               	.LBB58:
 275               	.LBB59:
 309:../src/main.c **** 	for(int r=0;r<=7;r++)
 310:../src/main.c **** 		for(int c=0;c<=7;c++)
 311:../src/main.c **** 				Matriz_RGB[r][c]=Apagado;
 276               		.loc 1 311 0 discriminator 3
 277 000c 8091 0000 		lds r24,Apagado
 278 0010 9091 0000 		lds r25,Apagado+1
 279 0014 A091 0000 		lds r26,Apagado+2
 280 0018 8193      		st Z+,r24
 281 001a 9193      		st Z+,r25
 282 001c A193      		st Z+,r26
 283               	.LVL12:
 310:../src/main.c **** 				Matriz_RGB[r][c]=Apagado;
 284               		.loc 1 310 0 discriminator 3
 285 001e E217      		cp r30,r18
 286 0020 F307      		cpc r31,r19
 287 0022 01F4      		brne .L15
 288 0024 F901      		movw r30,r18
 289               	.LBE59:
 309:../src/main.c **** 	for(int r=0;r<=7;r++)
 290               		.loc 1 309 0 discriminator 2
 291 0026 4217      		cp r20,r18
 292 0028 5307      		cpc r21,r19
 293 002a 01F0      		breq .L16
 294               	.L14:
 295               	.LVL13:
 296 002c 9F01      		movw r18,r30
 297 002e 285E      		subi r18,-24
 298 0030 3F4F      		sbci r19,-1
 299 0032 00C0      		rjmp .L15
 300               	.LVL14:
 301               	.L16:
 302               	.LBE58:
 312:../src/main.c **** 	sei();
 303               		.loc 1 312 0
 304               	/* #APP */
 305               	 ;  312 "../src/main.c" 1
 306 0034 7894      		sei
 307               	 ;  0 "" 2
 308               	/* #NOAPP */
 309 0036 0895      		ret
 310               		.cfi_endproc
 311               	.LFE80:
 313               		.section	.text.TurnoP1,"ax",@progbits
 314               	.global	TurnoP1
 316               	TurnoP1:
 317               	.LFB76:
 203:../src/main.c **** 	set_P1();
 318               		.loc 1 203 0
 319               		.cfi_startproc
 320 0000 CF93      		push r28
 321               	.LCFI4:
 322               		.cfi_def_cfa_offset 3
 323               		.cfi_offset 28, -2
 324 0002 DF93      		push r29
 325               	.LCFI5:
 326               		.cfi_def_cfa_offset 4
 327               		.cfi_offset 29, -3
 328               	/* prologue: function */
 329               	/* frame size = 0 */
 330               	/* stack size = 2 */
 331               	.L__stack_usage = 2
 204:../src/main.c **** 	ispressed = 1;
 332               		.loc 1 204 0
 333 0004 0E94 0000 		call set_P1
 334               	.LVL15:
 205:../src/main.c **** 	while (ispressed != 0)
 335               		.loc 1 205 0
 336 0008 81E0      		ldi r24,lo8(1)
 337 000a 90E0      		ldi r25,0
 338 000c 9093 0000 		sts ispressed+1,r25
 339 0010 8093 0000 		sts ispressed,r24
 340               	.LBB60:
 341               	.LBB61:
 342               	.LBB62:
 343               	.LBB63:
 344               		.file 2 "c:\\program files (x86)\\atmel\\studio\\7.0\\toolchain\\avr8\\avr8-gnu-toolchain\\avr\\in
   1:c:\program files (x86)\atmel\studio\7.0\toolchain\avr8\avr8-gnu-toolchain\avr\include\util\delay_basic.h **** /* Copyright (c) 2002, Marek Michalkiewicz
   2:c:\program files (x86)\atmel\studio\7.0\toolchain\avr8\avr8-gnu-toolchain\avr\include\util\delay_basic.h ****    Copyright (c) 2007 Joerg Wunsch
   3:c:\program files (x86)\atmel\studio\7.0\toolchain\avr8\avr8-gnu-toolchain\avr\include\util\delay_basic.h ****    All rights reserved.
   4:c:\program files (x86)\atmel\studio\7.0\toolchain\avr8\avr8-gnu-toolchain\avr\include\util\delay_basic.h **** 
   5:c:\program files (x86)\atmel\studio\7.0\toolchain\avr8\avr8-gnu-toolchain\avr\include\util\delay_basic.h ****    Redistribution and use in source and binary forms, with or without
   6:c:\program files (x86)\atmel\studio\7.0\toolchain\avr8\avr8-gnu-toolchain\avr\include\util\delay_basic.h ****    modification, are permitted provided that the following conditions are met:
   7:c:\program files (x86)\atmel\studio\7.0\toolchain\avr8\avr8-gnu-toolchain\avr\include\util\delay_basic.h **** 
   8:c:\program files (x86)\atmel\studio\7.0\toolchain\avr8\avr8-gnu-toolchain\avr\include\util\delay_basic.h ****    * Redistributions of source code must retain the above copyright
   9:c:\program files (x86)\atmel\studio\7.0\toolchain\avr8\avr8-gnu-toolchain\avr\include\util\delay_basic.h ****      notice, this list of conditions and the following disclaimer.
  10:c:\program files (x86)\atmel\studio\7.0\toolchain\avr8\avr8-gnu-toolchain\avr\include\util\delay_basic.h **** 
  11:c:\program files (x86)\atmel\studio\7.0\toolchain\avr8\avr8-gnu-toolchain\avr\include\util\delay_basic.h ****    * Redistributions in binary form must reproduce the above copyright
  12:c:\program files (x86)\atmel\studio\7.0\toolchain\avr8\avr8-gnu-toolchain\avr\include\util\delay_basic.h ****      notice, this list of conditions and the following disclaimer in
  13:c:\program files (x86)\atmel\studio\7.0\toolchain\avr8\avr8-gnu-toolchain\avr\include\util\delay_basic.h ****      the documentation and/or other materials provided with the
  14:c:\program files (x86)\atmel\studio\7.0\toolchain\avr8\avr8-gnu-toolchain\avr\include\util\delay_basic.h ****      distribution.
  15:c:\program files (x86)\atmel\studio\7.0\toolchain\avr8\avr8-gnu-toolchain\avr\include\util\delay_basic.h **** 
  16:c:\program files (x86)\atmel\studio\7.0\toolchain\avr8\avr8-gnu-toolchain\avr\include\util\delay_basic.h ****    * Neither the name of the copyright holders nor the names of
  17:c:\program files (x86)\atmel\studio\7.0\toolchain\avr8\avr8-gnu-toolchain\avr\include\util\delay_basic.h ****      contributors may be used to endorse or promote products derived
  18:c:\program files (x86)\atmel\studio\7.0\toolchain\avr8\avr8-gnu-toolchain\avr\include\util\delay_basic.h ****      from this software without specific prior written permission.
  19:c:\program files (x86)\atmel\studio\7.0\toolchain\avr8\avr8-gnu-toolchain\avr\include\util\delay_basic.h **** 
  20:c:\program files (x86)\atmel\studio\7.0\toolchain\avr8\avr8-gnu-toolchain\avr\include\util\delay_basic.h ****   THIS SOFTWARE IS PROVIDED BY THE COPYRIGHT HOLDERS AND CONTRIBUTORS "AS IS"
  21:c:\program files (x86)\atmel\studio\7.0\toolchain\avr8\avr8-gnu-toolchain\avr\include\util\delay_basic.h ****   AND ANY EXPRESS OR IMPLIED WARRANTIES, INCLUDING, BUT NOT LIMITED TO, THE
  22:c:\program files (x86)\atmel\studio\7.0\toolchain\avr8\avr8-gnu-toolchain\avr\include\util\delay_basic.h ****   IMPLIED WARRANTIES OF MERCHANTABILITY AND FITNESS FOR A PARTICULAR PURPOSE
  23:c:\program files (x86)\atmel\studio\7.0\toolchain\avr8\avr8-gnu-toolchain\avr\include\util\delay_basic.h ****   ARE DISCLAIMED. IN NO EVENT SHALL THE COPYRIGHT OWNER OR CONTRIBUTORS BE
  24:c:\program files (x86)\atmel\studio\7.0\toolchain\avr8\avr8-gnu-toolchain\avr\include\util\delay_basic.h ****   LIABLE FOR ANY DIRECT, INDIRECT, INCIDENTAL, SPECIAL, EXEMPLARY, OR
  25:c:\program files (x86)\atmel\studio\7.0\toolchain\avr8\avr8-gnu-toolchain\avr\include\util\delay_basic.h ****   CONSEQUENTIAL DAMAGES (INCLUDING, BUT NOT LIMITED TO, PROCUREMENT OF
  26:c:\program files (x86)\atmel\studio\7.0\toolchain\avr8\avr8-gnu-toolchain\avr\include\util\delay_basic.h ****   SUBSTITUTE GOODS OR SERVICES; LOSS OF USE, DATA, OR PROFITS; OR BUSINESS
  27:c:\program files (x86)\atmel\studio\7.0\toolchain\avr8\avr8-gnu-toolchain\avr\include\util\delay_basic.h ****   INTERRUPTION) HOWEVER CAUSED AND ON ANY THEORY OF LIABILITY, WHETHER IN
  28:c:\program files (x86)\atmel\studio\7.0\toolchain\avr8\avr8-gnu-toolchain\avr\include\util\delay_basic.h ****   CONTRACT, STRICT LIABILITY, OR TORT (INCLUDING NEGLIGENCE OR OTHERWISE)
  29:c:\program files (x86)\atmel\studio\7.0\toolchain\avr8\avr8-gnu-toolchain\avr\include\util\delay_basic.h ****   ARISING IN ANY WAY OUT OF THE USE OF THIS SOFTWARE, EVEN IF ADVISED OF THE
  30:c:\program files (x86)\atmel\studio\7.0\toolchain\avr8\avr8-gnu-toolchain\avr\include\util\delay_basic.h ****   POSSIBILITY OF SUCH DAMAGE. */
  31:c:\program files (x86)\atmel\studio\7.0\toolchain\avr8\avr8-gnu-toolchain\avr\include\util\delay_basic.h **** 
  32:c:\program files (x86)\atmel\studio\7.0\toolchain\avr8\avr8-gnu-toolchain\avr\include\util\delay_basic.h **** /* $Id$ */
  33:c:\program files (x86)\atmel\studio\7.0\toolchain\avr8\avr8-gnu-toolchain\avr\include\util\delay_basic.h **** 
  34:c:\program files (x86)\atmel\studio\7.0\toolchain\avr8\avr8-gnu-toolchain\avr\include\util\delay_basic.h **** #ifndef _UTIL_DELAY_BASIC_H_
  35:c:\program files (x86)\atmel\studio\7.0\toolchain\avr8\avr8-gnu-toolchain\avr\include\util\delay_basic.h **** #define _UTIL_DELAY_BASIC_H_ 1
  36:c:\program files (x86)\atmel\studio\7.0\toolchain\avr8\avr8-gnu-toolchain\avr\include\util\delay_basic.h **** 
  37:c:\program files (x86)\atmel\studio\7.0\toolchain\avr8\avr8-gnu-toolchain\avr\include\util\delay_basic.h **** #include <inttypes.h>
  38:c:\program files (x86)\atmel\studio\7.0\toolchain\avr8\avr8-gnu-toolchain\avr\include\util\delay_basic.h **** 
  39:c:\program files (x86)\atmel\studio\7.0\toolchain\avr8\avr8-gnu-toolchain\avr\include\util\delay_basic.h **** #if !defined(__DOXYGEN__)
  40:c:\program files (x86)\atmel\studio\7.0\toolchain\avr8\avr8-gnu-toolchain\avr\include\util\delay_basic.h **** static __inline__ void _delay_loop_1(uint8_t __count) __attribute__((__always_inline__));
  41:c:\program files (x86)\atmel\studio\7.0\toolchain\avr8\avr8-gnu-toolchain\avr\include\util\delay_basic.h **** static __inline__ void _delay_loop_2(uint16_t __count) __attribute__((__always_inline__));
  42:c:\program files (x86)\atmel\studio\7.0\toolchain\avr8\avr8-gnu-toolchain\avr\include\util\delay_basic.h **** #endif
  43:c:\program files (x86)\atmel\studio\7.0\toolchain\avr8\avr8-gnu-toolchain\avr\include\util\delay_basic.h **** 
  44:c:\program files (x86)\atmel\studio\7.0\toolchain\avr8\avr8-gnu-toolchain\avr\include\util\delay_basic.h **** /** \file */
  45:c:\program files (x86)\atmel\studio\7.0\toolchain\avr8\avr8-gnu-toolchain\avr\include\util\delay_basic.h **** /** \defgroup util_delay_basic <util/delay_basic.h>: Basic busy-wait delay loops
  46:c:\program files (x86)\atmel\studio\7.0\toolchain\avr8\avr8-gnu-toolchain\avr\include\util\delay_basic.h ****     \code
  47:c:\program files (x86)\atmel\studio\7.0\toolchain\avr8\avr8-gnu-toolchain\avr\include\util\delay_basic.h ****     #include <util/delay_basic.h>
  48:c:\program files (x86)\atmel\studio\7.0\toolchain\avr8\avr8-gnu-toolchain\avr\include\util\delay_basic.h ****     \endcode
  49:c:\program files (x86)\atmel\studio\7.0\toolchain\avr8\avr8-gnu-toolchain\avr\include\util\delay_basic.h **** 
  50:c:\program files (x86)\atmel\studio\7.0\toolchain\avr8\avr8-gnu-toolchain\avr\include\util\delay_basic.h ****     The functions in this header file implement simple delay loops
  51:c:\program files (x86)\atmel\studio\7.0\toolchain\avr8\avr8-gnu-toolchain\avr\include\util\delay_basic.h ****     that perform a busy-waiting.  They are typically used to
  52:c:\program files (x86)\atmel\studio\7.0\toolchain\avr8\avr8-gnu-toolchain\avr\include\util\delay_basic.h ****     facilitate short delays in the program execution.  They are
  53:c:\program files (x86)\atmel\studio\7.0\toolchain\avr8\avr8-gnu-toolchain\avr\include\util\delay_basic.h ****     implemented as count-down loops with a well-known CPU cycle
  54:c:\program files (x86)\atmel\studio\7.0\toolchain\avr8\avr8-gnu-toolchain\avr\include\util\delay_basic.h ****     count per loop iteration.  As such, no other processing can
  55:c:\program files (x86)\atmel\studio\7.0\toolchain\avr8\avr8-gnu-toolchain\avr\include\util\delay_basic.h ****     occur simultaneously.  It should be kept in mind that the
  56:c:\program files (x86)\atmel\studio\7.0\toolchain\avr8\avr8-gnu-toolchain\avr\include\util\delay_basic.h ****     functions described here do not disable interrupts.
  57:c:\program files (x86)\atmel\studio\7.0\toolchain\avr8\avr8-gnu-toolchain\avr\include\util\delay_basic.h **** 
  58:c:\program files (x86)\atmel\studio\7.0\toolchain\avr8\avr8-gnu-toolchain\avr\include\util\delay_basic.h ****     In general, for long delays, the use of hardware timers is
  59:c:\program files (x86)\atmel\studio\7.0\toolchain\avr8\avr8-gnu-toolchain\avr\include\util\delay_basic.h ****     much preferrable, as they free the CPU, and allow for
  60:c:\program files (x86)\atmel\studio\7.0\toolchain\avr8\avr8-gnu-toolchain\avr\include\util\delay_basic.h ****     concurrent processing of other events while the timer is
  61:c:\program files (x86)\atmel\studio\7.0\toolchain\avr8\avr8-gnu-toolchain\avr\include\util\delay_basic.h ****     running.  However, in particular for very short delays, the
  62:c:\program files (x86)\atmel\studio\7.0\toolchain\avr8\avr8-gnu-toolchain\avr\include\util\delay_basic.h ****     overhead of setting up a hardware timer is too much compared
  63:c:\program files (x86)\atmel\studio\7.0\toolchain\avr8\avr8-gnu-toolchain\avr\include\util\delay_basic.h ****     to the overall delay time.
  64:c:\program files (x86)\atmel\studio\7.0\toolchain\avr8\avr8-gnu-toolchain\avr\include\util\delay_basic.h **** 
  65:c:\program files (x86)\atmel\studio\7.0\toolchain\avr8\avr8-gnu-toolchain\avr\include\util\delay_basic.h ****     Two inline functions are provided for the actual delay algorithms.
  66:c:\program files (x86)\atmel\studio\7.0\toolchain\avr8\avr8-gnu-toolchain\avr\include\util\delay_basic.h **** 
  67:c:\program files (x86)\atmel\studio\7.0\toolchain\avr8\avr8-gnu-toolchain\avr\include\util\delay_basic.h **** */
  68:c:\program files (x86)\atmel\studio\7.0\toolchain\avr8\avr8-gnu-toolchain\avr\include\util\delay_basic.h **** 
  69:c:\program files (x86)\atmel\studio\7.0\toolchain\avr8\avr8-gnu-toolchain\avr\include\util\delay_basic.h **** /** \ingroup util_delay_basic
  70:c:\program files (x86)\atmel\studio\7.0\toolchain\avr8\avr8-gnu-toolchain\avr\include\util\delay_basic.h **** 
  71:c:\program files (x86)\atmel\studio\7.0\toolchain\avr8\avr8-gnu-toolchain\avr\include\util\delay_basic.h ****     Delay loop using an 8-bit counter \c __count, so up to 256
  72:c:\program files (x86)\atmel\studio\7.0\toolchain\avr8\avr8-gnu-toolchain\avr\include\util\delay_basic.h ****     iterations are possible.  (The value 256 would have to be passed
  73:c:\program files (x86)\atmel\studio\7.0\toolchain\avr8\avr8-gnu-toolchain\avr\include\util\delay_basic.h ****     as 0.)  The loop executes three CPU cycles per iteration, not
  74:c:\program files (x86)\atmel\studio\7.0\toolchain\avr8\avr8-gnu-toolchain\avr\include\util\delay_basic.h ****     including the overhead the compiler needs to setup the counter
  75:c:\program files (x86)\atmel\studio\7.0\toolchain\avr8\avr8-gnu-toolchain\avr\include\util\delay_basic.h ****     register.
  76:c:\program files (x86)\atmel\studio\7.0\toolchain\avr8\avr8-gnu-toolchain\avr\include\util\delay_basic.h **** 
  77:c:\program files (x86)\atmel\studio\7.0\toolchain\avr8\avr8-gnu-toolchain\avr\include\util\delay_basic.h ****     Thus, at a CPU speed of 1 MHz, delays of up to 768 microseconds
  78:c:\program files (x86)\atmel\studio\7.0\toolchain\avr8\avr8-gnu-toolchain\avr\include\util\delay_basic.h ****     can be achieved.
  79:c:\program files (x86)\atmel\studio\7.0\toolchain\avr8\avr8-gnu-toolchain\avr\include\util\delay_basic.h **** */
  80:c:\program files (x86)\atmel\studio\7.0\toolchain\avr8\avr8-gnu-toolchain\avr\include\util\delay_basic.h **** void
  81:c:\program files (x86)\atmel\studio\7.0\toolchain\avr8\avr8-gnu-toolchain\avr\include\util\delay_basic.h **** _delay_loop_1(uint8_t __count)
  82:c:\program files (x86)\atmel\studio\7.0\toolchain\avr8\avr8-gnu-toolchain\avr\include\util\delay_basic.h **** {
  83:c:\program files (x86)\atmel\studio\7.0\toolchain\avr8\avr8-gnu-toolchain\avr\include\util\delay_basic.h **** 	__asm__ volatile (
  84:c:\program files (x86)\atmel\studio\7.0\toolchain\avr8\avr8-gnu-toolchain\avr\include\util\delay_basic.h **** 		"1: dec %0" "\n\t"
  85:c:\program files (x86)\atmel\studio\7.0\toolchain\avr8\avr8-gnu-toolchain\avr\include\util\delay_basic.h **** 		"brne 1b"
  86:c:\program files (x86)\atmel\studio\7.0\toolchain\avr8\avr8-gnu-toolchain\avr\include\util\delay_basic.h **** 		: "=r" (__count)
  87:c:\program files (x86)\atmel\studio\7.0\toolchain\avr8\avr8-gnu-toolchain\avr\include\util\delay_basic.h **** 		: "0" (__count)
  88:c:\program files (x86)\atmel\studio\7.0\toolchain\avr8\avr8-gnu-toolchain\avr\include\util\delay_basic.h **** 	);
  89:c:\program files (x86)\atmel\studio\7.0\toolchain\avr8\avr8-gnu-toolchain\avr\include\util\delay_basic.h **** }
  90:c:\program files (x86)\atmel\studio\7.0\toolchain\avr8\avr8-gnu-toolchain\avr\include\util\delay_basic.h **** 
  91:c:\program files (x86)\atmel\studio\7.0\toolchain\avr8\avr8-gnu-toolchain\avr\include\util\delay_basic.h **** /** \ingroup util_delay_basic
  92:c:\program files (x86)\atmel\studio\7.0\toolchain\avr8\avr8-gnu-toolchain\avr\include\util\delay_basic.h **** 
  93:c:\program files (x86)\atmel\studio\7.0\toolchain\avr8\avr8-gnu-toolchain\avr\include\util\delay_basic.h ****     Delay loop using a 16-bit counter \c __count, so up to 65536
  94:c:\program files (x86)\atmel\studio\7.0\toolchain\avr8\avr8-gnu-toolchain\avr\include\util\delay_basic.h ****     iterations are possible.  (The value 65536 would have to be
  95:c:\program files (x86)\atmel\studio\7.0\toolchain\avr8\avr8-gnu-toolchain\avr\include\util\delay_basic.h ****     passed as 0.)  The loop executes four CPU cycles per iteration,
  96:c:\program files (x86)\atmel\studio\7.0\toolchain\avr8\avr8-gnu-toolchain\avr\include\util\delay_basic.h ****     not including the overhead the compiler requires to setup the
  97:c:\program files (x86)\atmel\studio\7.0\toolchain\avr8\avr8-gnu-toolchain\avr\include\util\delay_basic.h ****     counter register pair.
  98:c:\program files (x86)\atmel\studio\7.0\toolchain\avr8\avr8-gnu-toolchain\avr\include\util\delay_basic.h **** 
  99:c:\program files (x86)\atmel\studio\7.0\toolchain\avr8\avr8-gnu-toolchain\avr\include\util\delay_basic.h ****     Thus, at a CPU speed of 1 MHz, delays of up to about 262.1
 100:c:\program files (x86)\atmel\studio\7.0\toolchain\avr8\avr8-gnu-toolchain\avr\include\util\delay_basic.h ****     milliseconds can be achieved.
 101:c:\program files (x86)\atmel\studio\7.0\toolchain\avr8\avr8-gnu-toolchain\avr\include\util\delay_basic.h ****  */
 102:c:\program files (x86)\atmel\studio\7.0\toolchain\avr8\avr8-gnu-toolchain\avr\include\util\delay_basic.h **** void
 103:c:\program files (x86)\atmel\studio\7.0\toolchain\avr8\avr8-gnu-toolchain\avr\include\util\delay_basic.h **** _delay_loop_2(uint16_t __count)
 104:c:\program files (x86)\atmel\studio\7.0\toolchain\avr8\avr8-gnu-toolchain\avr\include\util\delay_basic.h **** {
 105:c:\program files (x86)\atmel\studio\7.0\toolchain\avr8\avr8-gnu-toolchain\avr\include\util\delay_basic.h **** 	__asm__ volatile (
 345               		.loc 2 105 0
 346 0014 C0E9      		ldi r28,lo8(-112)
 347 0016 D1E0      		ldi r29,lo8(1)
 348               	.LBE63:
 349               	.LBE62:
 350               	.LBE61:
 351               	.LBE60:
 206:../src/main.c **** 	{
 352               		.loc 1 206 0
 353 0018 00C0      		rjmp .L19
 354               	.L24:
 208:../src/main.c **** 		{
 355               		.loc 1 208 0
 356 001a 8091 0000 		lds r24,ContadorPuntero
 357 001e 9091 0000 		lds r25,ContadorPuntero+1
 358 0022 8A35      		cpi r24,90
 359 0024 9105      		cpc r25,__zero_reg__
 360 0026 00F4      		brsh .L20
 210:../src/main.c **** 			Matriz_RGB[ijoy][jjoy] = punteroP1;
 361               		.loc 1 210 0
 362 0028 0E94 0000 		call Mostrar_Matriz_2
 363               	.LVL16:
 211:../src/main.c **** 			_delay_ms(50);
 364               		.loc 1 211 0
 365 002c 8091 0000 		lds r24,ijoy
 366 0030 9091 0000 		lds r25,ijoy+1
 367 0034 2091 0000 		lds r18,jjoy
 368 0038 3091 0000 		lds r19,jjoy+1
 369 003c F901      		movw r30,r18
 370 003e EE0F      		lsl r30
 371 0040 FF1F      		rol r31
 372 0042 E20F      		add r30,r18
 373 0044 F31F      		adc r31,r19
 374 0046 9C01      		movw r18,r24
 375 0048 220F      		lsl r18
 376 004a 331F      		rol r19
 377 004c 820F      		add r24,r18
 378 004e 931F      		adc r25,r19
 379 0050 880F      		lsl r24
 380 0052 991F      		rol r25
 381 0054 880F      		lsl r24
 382 0056 991F      		rol r25
 383 0058 880F      		lsl r24
 384 005a 991F      		rol r25
 385 005c E80F      		add r30,r24
 386 005e F91F      		adc r31,r25
 387 0060 E050      		subi r30,lo8(-(Matriz_RGB))
 388 0062 F040      		sbci r31,hi8(-(Matriz_RGB))
 389 0064 8091 0000 		lds r24,punteroP1
 390 0068 9091 0000 		lds r25,punteroP1+1
 391 006c A091 0000 		lds r26,punteroP1+2
 392 0070 8083      		st Z,r24
 393 0072 9183      		std Z+1,r25
 394 0074 A283      		std Z+2,r26
 395               	.LVL17:
 396 0076 84EF      		ldi r24,lo8(-12)
 397 0078 91E0      		ldi r25,lo8(1)
 398               	.LVL18:
 399               	.L21:
 400               	.LBB67:
 401               	.LBB68:
 402               	.LBB69:
 403               	.LBB70:
 404               		.loc 2 105 0
 405 007a FE01      		movw r30,r28
 406               	/* #APP */
 407               	 ;  105 "c:\program files (x86)\atmel\studio\7.0\toolchain\avr8\avr8-gnu-toolchain\avr\include\util
 408 007c 3197      		1: sbiw r30,1
 409 007e 01F4      		brne 1b
 410               	 ;  0 "" 2
 411               	.LVL19:
 412               	/* #NOAPP */
 413 0080 0197      		sbiw r24,1
 414               	.LVL20:
 415               	.LBE70:
 416               	.LBE69:
 417               		.file 3 "c:\\program files (x86)\\atmel\\studio\\7.0\\toolchain\\avr8\\avr8-gnu-toolchain\\avr\\in
   1:c:\program files (x86)\atmel\studio\7.0\toolchain\avr8\avr8-gnu-toolchain\avr\include\util\delay.h **** /* Copyright (c) 2002, Marek Michalkiewicz
   2:c:\program files (x86)\atmel\studio\7.0\toolchain\avr8\avr8-gnu-toolchain\avr\include\util\delay.h ****    Copyright (c) 2004,2005,2007 Joerg Wunsch
   3:c:\program files (x86)\atmel\studio\7.0\toolchain\avr8\avr8-gnu-toolchain\avr\include\util\delay.h ****    Copyright (c) 2007  Florin-Viorel Petrov
   4:c:\program files (x86)\atmel\studio\7.0\toolchain\avr8\avr8-gnu-toolchain\avr\include\util\delay.h ****    All rights reserved.
   5:c:\program files (x86)\atmel\studio\7.0\toolchain\avr8\avr8-gnu-toolchain\avr\include\util\delay.h **** 
   6:c:\program files (x86)\atmel\studio\7.0\toolchain\avr8\avr8-gnu-toolchain\avr\include\util\delay.h ****    Redistribution and use in source and binary forms, with or without
   7:c:\program files (x86)\atmel\studio\7.0\toolchain\avr8\avr8-gnu-toolchain\avr\include\util\delay.h ****    modification, are permitted provided that the following conditions are met:
   8:c:\program files (x86)\atmel\studio\7.0\toolchain\avr8\avr8-gnu-toolchain\avr\include\util\delay.h **** 
   9:c:\program files (x86)\atmel\studio\7.0\toolchain\avr8\avr8-gnu-toolchain\avr\include\util\delay.h ****    * Redistributions of source code must retain the above copyright
  10:c:\program files (x86)\atmel\studio\7.0\toolchain\avr8\avr8-gnu-toolchain\avr\include\util\delay.h ****      notice, this list of conditions and the following disclaimer.
  11:c:\program files (x86)\atmel\studio\7.0\toolchain\avr8\avr8-gnu-toolchain\avr\include\util\delay.h **** 
  12:c:\program files (x86)\atmel\studio\7.0\toolchain\avr8\avr8-gnu-toolchain\avr\include\util\delay.h ****    * Redistributions in binary form must reproduce the above copyright
  13:c:\program files (x86)\atmel\studio\7.0\toolchain\avr8\avr8-gnu-toolchain\avr\include\util\delay.h ****      notice, this list of conditions and the following disclaimer in
  14:c:\program files (x86)\atmel\studio\7.0\toolchain\avr8\avr8-gnu-toolchain\avr\include\util\delay.h ****      the documentation and/or other materials provided with the
  15:c:\program files (x86)\atmel\studio\7.0\toolchain\avr8\avr8-gnu-toolchain\avr\include\util\delay.h ****      distribution.
  16:c:\program files (x86)\atmel\studio\7.0\toolchain\avr8\avr8-gnu-toolchain\avr\include\util\delay.h **** 
  17:c:\program files (x86)\atmel\studio\7.0\toolchain\avr8\avr8-gnu-toolchain\avr\include\util\delay.h ****    * Neither the name of the copyright holders nor the names of
  18:c:\program files (x86)\atmel\studio\7.0\toolchain\avr8\avr8-gnu-toolchain\avr\include\util\delay.h ****      contributors may be used to endorse or promote products derived
  19:c:\program files (x86)\atmel\studio\7.0\toolchain\avr8\avr8-gnu-toolchain\avr\include\util\delay.h ****      from this software without specific prior written permission.
  20:c:\program files (x86)\atmel\studio\7.0\toolchain\avr8\avr8-gnu-toolchain\avr\include\util\delay.h **** 
  21:c:\program files (x86)\atmel\studio\7.0\toolchain\avr8\avr8-gnu-toolchain\avr\include\util\delay.h ****   THIS SOFTWARE IS PROVIDED BY THE COPYRIGHT HOLDERS AND CONTRIBUTORS "AS IS"
  22:c:\program files (x86)\atmel\studio\7.0\toolchain\avr8\avr8-gnu-toolchain\avr\include\util\delay.h ****   AND ANY EXPRESS OR IMPLIED WARRANTIES, INCLUDING, BUT NOT LIMITED TO, THE
  23:c:\program files (x86)\atmel\studio\7.0\toolchain\avr8\avr8-gnu-toolchain\avr\include\util\delay.h ****   IMPLIED WARRANTIES OF MERCHANTABILITY AND FITNESS FOR A PARTICULAR PURPOSE
  24:c:\program files (x86)\atmel\studio\7.0\toolchain\avr8\avr8-gnu-toolchain\avr\include\util\delay.h ****   ARE DISCLAIMED. IN NO EVENT SHALL THE COPYRIGHT OWNER OR CONTRIBUTORS BE
  25:c:\program files (x86)\atmel\studio\7.0\toolchain\avr8\avr8-gnu-toolchain\avr\include\util\delay.h ****   LIABLE FOR ANY DIRECT, INDIRECT, INCIDENTAL, SPECIAL, EXEMPLARY, OR
  26:c:\program files (x86)\atmel\studio\7.0\toolchain\avr8\avr8-gnu-toolchain\avr\include\util\delay.h ****   CONSEQUENTIAL DAMAGES (INCLUDING, BUT NOT LIMITED TO, PROCUREMENT OF
  27:c:\program files (x86)\atmel\studio\7.0\toolchain\avr8\avr8-gnu-toolchain\avr\include\util\delay.h ****   SUBSTITUTE GOODS OR SERVICES; LOSS OF USE, DATA, OR PROFITS; OR BUSINESS
  28:c:\program files (x86)\atmel\studio\7.0\toolchain\avr8\avr8-gnu-toolchain\avr\include\util\delay.h ****   INTERRUPTION) HOWEVER CAUSED AND ON ANY THEORY OF LIABILITY, WHETHER IN
  29:c:\program files (x86)\atmel\studio\7.0\toolchain\avr8\avr8-gnu-toolchain\avr\include\util\delay.h ****   CONTRACT, STRICT LIABILITY, OR TORT (INCLUDING NEGLIGENCE OR OTHERWISE)
  30:c:\program files (x86)\atmel\studio\7.0\toolchain\avr8\avr8-gnu-toolchain\avr\include\util\delay.h ****   ARISING IN ANY WAY OUT OF THE USE OF THIS SOFTWARE, EVEN IF ADVISED OF THE
  31:c:\program files (x86)\atmel\studio\7.0\toolchain\avr8\avr8-gnu-toolchain\avr\include\util\delay.h ****   POSSIBILITY OF SUCH DAMAGE. */
  32:c:\program files (x86)\atmel\studio\7.0\toolchain\avr8\avr8-gnu-toolchain\avr\include\util\delay.h **** 
  33:c:\program files (x86)\atmel\studio\7.0\toolchain\avr8\avr8-gnu-toolchain\avr\include\util\delay.h **** /* $Id$ */
  34:c:\program files (x86)\atmel\studio\7.0\toolchain\avr8\avr8-gnu-toolchain\avr\include\util\delay.h **** 
  35:c:\program files (x86)\atmel\studio\7.0\toolchain\avr8\avr8-gnu-toolchain\avr\include\util\delay.h **** #ifndef _UTIL_DELAY_H_
  36:c:\program files (x86)\atmel\studio\7.0\toolchain\avr8\avr8-gnu-toolchain\avr\include\util\delay.h **** #define _UTIL_DELAY_H_ 1
  37:c:\program files (x86)\atmel\studio\7.0\toolchain\avr8\avr8-gnu-toolchain\avr\include\util\delay.h **** 
  38:c:\program files (x86)\atmel\studio\7.0\toolchain\avr8\avr8-gnu-toolchain\avr\include\util\delay.h **** #ifndef __DOXYGEN__
  39:c:\program files (x86)\atmel\studio\7.0\toolchain\avr8\avr8-gnu-toolchain\avr\include\util\delay.h **** #  ifndef __HAS_DELAY_CYCLES
  40:c:\program files (x86)\atmel\studio\7.0\toolchain\avr8\avr8-gnu-toolchain\avr\include\util\delay.h **** #    define __HAS_DELAY_CYCLES 1
  41:c:\program files (x86)\atmel\studio\7.0\toolchain\avr8\avr8-gnu-toolchain\avr\include\util\delay.h **** #  endif
  42:c:\program files (x86)\atmel\studio\7.0\toolchain\avr8\avr8-gnu-toolchain\avr\include\util\delay.h **** #endif  /* __DOXYGEN__ */
  43:c:\program files (x86)\atmel\studio\7.0\toolchain\avr8\avr8-gnu-toolchain\avr\include\util\delay.h **** 
  44:c:\program files (x86)\atmel\studio\7.0\toolchain\avr8\avr8-gnu-toolchain\avr\include\util\delay.h **** #include <inttypes.h>
  45:c:\program files (x86)\atmel\studio\7.0\toolchain\avr8\avr8-gnu-toolchain\avr\include\util\delay.h **** #include <util/delay_basic.h>
  46:c:\program files (x86)\atmel\studio\7.0\toolchain\avr8\avr8-gnu-toolchain\avr\include\util\delay.h **** #include <math.h>
  47:c:\program files (x86)\atmel\studio\7.0\toolchain\avr8\avr8-gnu-toolchain\avr\include\util\delay.h **** 
  48:c:\program files (x86)\atmel\studio\7.0\toolchain\avr8\avr8-gnu-toolchain\avr\include\util\delay.h **** /** \file */
  49:c:\program files (x86)\atmel\studio\7.0\toolchain\avr8\avr8-gnu-toolchain\avr\include\util\delay.h **** /** \defgroup util_delay <util/delay.h>: Convenience functions for busy-wait delay loops
  50:c:\program files (x86)\atmel\studio\7.0\toolchain\avr8\avr8-gnu-toolchain\avr\include\util\delay.h ****     \code
  51:c:\program files (x86)\atmel\studio\7.0\toolchain\avr8\avr8-gnu-toolchain\avr\include\util\delay.h ****     #define F_CPU 1000000UL  // 1 MHz
  52:c:\program files (x86)\atmel\studio\7.0\toolchain\avr8\avr8-gnu-toolchain\avr\include\util\delay.h ****     //#define F_CPU 14.7456E6
  53:c:\program files (x86)\atmel\studio\7.0\toolchain\avr8\avr8-gnu-toolchain\avr\include\util\delay.h ****     #include <util/delay.h>
  54:c:\program files (x86)\atmel\studio\7.0\toolchain\avr8\avr8-gnu-toolchain\avr\include\util\delay.h ****     \endcode
  55:c:\program files (x86)\atmel\studio\7.0\toolchain\avr8\avr8-gnu-toolchain\avr\include\util\delay.h **** 
  56:c:\program files (x86)\atmel\studio\7.0\toolchain\avr8\avr8-gnu-toolchain\avr\include\util\delay.h ****     \note As an alternative method, it is possible to pass the
  57:c:\program files (x86)\atmel\studio\7.0\toolchain\avr8\avr8-gnu-toolchain\avr\include\util\delay.h ****     F_CPU macro down to the compiler from the Makefile.
  58:c:\program files (x86)\atmel\studio\7.0\toolchain\avr8\avr8-gnu-toolchain\avr\include\util\delay.h ****     Obviously, in that case, no \c \#define statement should be
  59:c:\program files (x86)\atmel\studio\7.0\toolchain\avr8\avr8-gnu-toolchain\avr\include\util\delay.h ****     used.
  60:c:\program files (x86)\atmel\studio\7.0\toolchain\avr8\avr8-gnu-toolchain\avr\include\util\delay.h **** 
  61:c:\program files (x86)\atmel\studio\7.0\toolchain\avr8\avr8-gnu-toolchain\avr\include\util\delay.h ****     The functions in this header file are wrappers around the basic
  62:c:\program files (x86)\atmel\studio\7.0\toolchain\avr8\avr8-gnu-toolchain\avr\include\util\delay.h ****     busy-wait functions from <util/delay_basic.h>.  They are meant as
  63:c:\program files (x86)\atmel\studio\7.0\toolchain\avr8\avr8-gnu-toolchain\avr\include\util\delay.h ****     convenience functions where actual time values can be specified
  64:c:\program files (x86)\atmel\studio\7.0\toolchain\avr8\avr8-gnu-toolchain\avr\include\util\delay.h ****     rather than a number of cycles to wait for.  The idea behind is
  65:c:\program files (x86)\atmel\studio\7.0\toolchain\avr8\avr8-gnu-toolchain\avr\include\util\delay.h ****     that compile-time constant expressions will be eliminated by
  66:c:\program files (x86)\atmel\studio\7.0\toolchain\avr8\avr8-gnu-toolchain\avr\include\util\delay.h ****     compiler optimization so floating-point expressions can be used
  67:c:\program files (x86)\atmel\studio\7.0\toolchain\avr8\avr8-gnu-toolchain\avr\include\util\delay.h ****     to calculate the number of delay cycles needed based on the CPU
  68:c:\program files (x86)\atmel\studio\7.0\toolchain\avr8\avr8-gnu-toolchain\avr\include\util\delay.h ****     frequency passed by the macro F_CPU.
  69:c:\program files (x86)\atmel\studio\7.0\toolchain\avr8\avr8-gnu-toolchain\avr\include\util\delay.h **** 
  70:c:\program files (x86)\atmel\studio\7.0\toolchain\avr8\avr8-gnu-toolchain\avr\include\util\delay.h ****     \note In order for these functions to work as intended, compiler
  71:c:\program files (x86)\atmel\studio\7.0\toolchain\avr8\avr8-gnu-toolchain\avr\include\util\delay.h ****     optimizations <em>must</em> be enabled, and the delay time
  72:c:\program files (x86)\atmel\studio\7.0\toolchain\avr8\avr8-gnu-toolchain\avr\include\util\delay.h ****     <em>must</em> be an expression that is a known constant at
  73:c:\program files (x86)\atmel\studio\7.0\toolchain\avr8\avr8-gnu-toolchain\avr\include\util\delay.h ****     compile-time.  If these requirements are not met, the resulting
  74:c:\program files (x86)\atmel\studio\7.0\toolchain\avr8\avr8-gnu-toolchain\avr\include\util\delay.h ****     delay will be much longer (and basically unpredictable), and
  75:c:\program files (x86)\atmel\studio\7.0\toolchain\avr8\avr8-gnu-toolchain\avr\include\util\delay.h ****     applications that otherwise do not use floating-point calculations
  76:c:\program files (x86)\atmel\studio\7.0\toolchain\avr8\avr8-gnu-toolchain\avr\include\util\delay.h ****     will experience severe code bloat by the floating-point library
  77:c:\program files (x86)\atmel\studio\7.0\toolchain\avr8\avr8-gnu-toolchain\avr\include\util\delay.h ****     routines linked into the application.
  78:c:\program files (x86)\atmel\studio\7.0\toolchain\avr8\avr8-gnu-toolchain\avr\include\util\delay.h **** 
  79:c:\program files (x86)\atmel\studio\7.0\toolchain\avr8\avr8-gnu-toolchain\avr\include\util\delay.h ****     The functions available allow the specification of microsecond, and
  80:c:\program files (x86)\atmel\studio\7.0\toolchain\avr8\avr8-gnu-toolchain\avr\include\util\delay.h ****     millisecond delays directly, using the application-supplied macro
  81:c:\program files (x86)\atmel\studio\7.0\toolchain\avr8\avr8-gnu-toolchain\avr\include\util\delay.h ****     F_CPU as the CPU clock frequency (in Hertz).
  82:c:\program files (x86)\atmel\studio\7.0\toolchain\avr8\avr8-gnu-toolchain\avr\include\util\delay.h **** 
  83:c:\program files (x86)\atmel\studio\7.0\toolchain\avr8\avr8-gnu-toolchain\avr\include\util\delay.h **** */
  84:c:\program files (x86)\atmel\studio\7.0\toolchain\avr8\avr8-gnu-toolchain\avr\include\util\delay.h **** 
  85:c:\program files (x86)\atmel\studio\7.0\toolchain\avr8\avr8-gnu-toolchain\avr\include\util\delay.h **** #if !defined(__DOXYGEN__)
  86:c:\program files (x86)\atmel\studio\7.0\toolchain\avr8\avr8-gnu-toolchain\avr\include\util\delay.h **** static __inline__ void _delay_us(double __us) __attribute__((__always_inline__));
  87:c:\program files (x86)\atmel\studio\7.0\toolchain\avr8\avr8-gnu-toolchain\avr\include\util\delay.h **** static __inline__ void _delay_ms(double __ms) __attribute__((__always_inline__));
  88:c:\program files (x86)\atmel\studio\7.0\toolchain\avr8\avr8-gnu-toolchain\avr\include\util\delay.h **** #endif
  89:c:\program files (x86)\atmel\studio\7.0\toolchain\avr8\avr8-gnu-toolchain\avr\include\util\delay.h **** 
  90:c:\program files (x86)\atmel\studio\7.0\toolchain\avr8\avr8-gnu-toolchain\avr\include\util\delay.h **** #ifndef F_CPU
  91:c:\program files (x86)\atmel\studio\7.0\toolchain\avr8\avr8-gnu-toolchain\avr\include\util\delay.h **** /* prevent compiler error by supplying a default */
  92:c:\program files (x86)\atmel\studio\7.0\toolchain\avr8\avr8-gnu-toolchain\avr\include\util\delay.h **** # warning "F_CPU not defined for <util/delay.h>"
  93:c:\program files (x86)\atmel\studio\7.0\toolchain\avr8\avr8-gnu-toolchain\avr\include\util\delay.h **** /** \ingroup util_delay
  94:c:\program files (x86)\atmel\studio\7.0\toolchain\avr8\avr8-gnu-toolchain\avr\include\util\delay.h ****     \def F_CPU
  95:c:\program files (x86)\atmel\studio\7.0\toolchain\avr8\avr8-gnu-toolchain\avr\include\util\delay.h ****     \brief CPU frequency in Hz
  96:c:\program files (x86)\atmel\studio\7.0\toolchain\avr8\avr8-gnu-toolchain\avr\include\util\delay.h **** 
  97:c:\program files (x86)\atmel\studio\7.0\toolchain\avr8\avr8-gnu-toolchain\avr\include\util\delay.h ****     The macro F_CPU specifies the CPU frequency to be considered by
  98:c:\program files (x86)\atmel\studio\7.0\toolchain\avr8\avr8-gnu-toolchain\avr\include\util\delay.h ****     the delay macros.  This macro is normally supplied by the
  99:c:\program files (x86)\atmel\studio\7.0\toolchain\avr8\avr8-gnu-toolchain\avr\include\util\delay.h ****     environment (e.g. from within a project header, or the project's
 100:c:\program files (x86)\atmel\studio\7.0\toolchain\avr8\avr8-gnu-toolchain\avr\include\util\delay.h ****     Makefile).  The value 1 MHz here is only provided as a "vanilla"
 101:c:\program files (x86)\atmel\studio\7.0\toolchain\avr8\avr8-gnu-toolchain\avr\include\util\delay.h ****     fallback if no such user-provided definition could be found.
 102:c:\program files (x86)\atmel\studio\7.0\toolchain\avr8\avr8-gnu-toolchain\avr\include\util\delay.h **** 
 103:c:\program files (x86)\atmel\studio\7.0\toolchain\avr8\avr8-gnu-toolchain\avr\include\util\delay.h ****     In terms of the delay functions, the CPU frequency can be given as
 104:c:\program files (x86)\atmel\studio\7.0\toolchain\avr8\avr8-gnu-toolchain\avr\include\util\delay.h ****     a floating-point constant (e.g. 3.6864E6 for 3.6864 MHz).
 105:c:\program files (x86)\atmel\studio\7.0\toolchain\avr8\avr8-gnu-toolchain\avr\include\util\delay.h ****     However, the macros in <util/setbaud.h> require it to be an
 106:c:\program files (x86)\atmel\studio\7.0\toolchain\avr8\avr8-gnu-toolchain\avr\include\util\delay.h ****     integer value.
 107:c:\program files (x86)\atmel\studio\7.0\toolchain\avr8\avr8-gnu-toolchain\avr\include\util\delay.h ****  */
 108:c:\program files (x86)\atmel\studio\7.0\toolchain\avr8\avr8-gnu-toolchain\avr\include\util\delay.h **** # define F_CPU 1000000UL
 109:c:\program files (x86)\atmel\studio\7.0\toolchain\avr8\avr8-gnu-toolchain\avr\include\util\delay.h **** #endif
 110:c:\program files (x86)\atmel\studio\7.0\toolchain\avr8\avr8-gnu-toolchain\avr\include\util\delay.h **** 
 111:c:\program files (x86)\atmel\studio\7.0\toolchain\avr8\avr8-gnu-toolchain\avr\include\util\delay.h **** #ifndef __OPTIMIZE__
 112:c:\program files (x86)\atmel\studio\7.0\toolchain\avr8\avr8-gnu-toolchain\avr\include\util\delay.h **** # warning "Compiler optimizations disabled; functions from <util/delay.h> won't work as designed"
 113:c:\program files (x86)\atmel\studio\7.0\toolchain\avr8\avr8-gnu-toolchain\avr\include\util\delay.h **** #endif
 114:c:\program files (x86)\atmel\studio\7.0\toolchain\avr8\avr8-gnu-toolchain\avr\include\util\delay.h **** 
 115:c:\program files (x86)\atmel\studio\7.0\toolchain\avr8\avr8-gnu-toolchain\avr\include\util\delay.h **** #if __HAS_DELAY_CYCLES && defined(__OPTIMIZE__) && \
 116:c:\program files (x86)\atmel\studio\7.0\toolchain\avr8\avr8-gnu-toolchain\avr\include\util\delay.h ****   !defined(__DELAY_BACKWARD_COMPATIBLE__) &&	   \
 117:c:\program files (x86)\atmel\studio\7.0\toolchain\avr8\avr8-gnu-toolchain\avr\include\util\delay.h ****   __STDC_HOSTED__
 118:c:\program files (x86)\atmel\studio\7.0\toolchain\avr8\avr8-gnu-toolchain\avr\include\util\delay.h **** #  include <math.h>
 119:c:\program files (x86)\atmel\studio\7.0\toolchain\avr8\avr8-gnu-toolchain\avr\include\util\delay.h **** #endif
 120:c:\program files (x86)\atmel\studio\7.0\toolchain\avr8\avr8-gnu-toolchain\avr\include\util\delay.h **** 
 121:c:\program files (x86)\atmel\studio\7.0\toolchain\avr8\avr8-gnu-toolchain\avr\include\util\delay.h **** /**
 122:c:\program files (x86)\atmel\studio\7.0\toolchain\avr8\avr8-gnu-toolchain\avr\include\util\delay.h ****    \ingroup util_delay
 123:c:\program files (x86)\atmel\studio\7.0\toolchain\avr8\avr8-gnu-toolchain\avr\include\util\delay.h **** 
 124:c:\program files (x86)\atmel\studio\7.0\toolchain\avr8\avr8-gnu-toolchain\avr\include\util\delay.h ****    Perform a delay of \c __ms milliseconds, using _delay_loop_2().
 125:c:\program files (x86)\atmel\studio\7.0\toolchain\avr8\avr8-gnu-toolchain\avr\include\util\delay.h **** 
 126:c:\program files (x86)\atmel\studio\7.0\toolchain\avr8\avr8-gnu-toolchain\avr\include\util\delay.h ****    The macro F_CPU is supposed to be defined to a
 127:c:\program files (x86)\atmel\studio\7.0\toolchain\avr8\avr8-gnu-toolchain\avr\include\util\delay.h ****    constant defining the CPU clock frequency (in Hertz).
 128:c:\program files (x86)\atmel\studio\7.0\toolchain\avr8\avr8-gnu-toolchain\avr\include\util\delay.h **** 
 129:c:\program files (x86)\atmel\studio\7.0\toolchain\avr8\avr8-gnu-toolchain\avr\include\util\delay.h ****    The maximal possible delay is 262.14 ms / F_CPU in MHz.
 130:c:\program files (x86)\atmel\studio\7.0\toolchain\avr8\avr8-gnu-toolchain\avr\include\util\delay.h **** 
 131:c:\program files (x86)\atmel\studio\7.0\toolchain\avr8\avr8-gnu-toolchain\avr\include\util\delay.h ****    When the user request delay which exceed the maximum possible one,
 132:c:\program files (x86)\atmel\studio\7.0\toolchain\avr8\avr8-gnu-toolchain\avr\include\util\delay.h ****    _delay_ms() provides a decreased resolution functionality. In this
 133:c:\program files (x86)\atmel\studio\7.0\toolchain\avr8\avr8-gnu-toolchain\avr\include\util\delay.h ****    mode _delay_ms() will work with a resolution of 1/10 ms, providing
 134:c:\program files (x86)\atmel\studio\7.0\toolchain\avr8\avr8-gnu-toolchain\avr\include\util\delay.h ****    delays up to 6.5535 seconds (independent from CPU frequency).  The
 135:c:\program files (x86)\atmel\studio\7.0\toolchain\avr8\avr8-gnu-toolchain\avr\include\util\delay.h ****    user will not be informed about decreased resolution.
 136:c:\program files (x86)\atmel\studio\7.0\toolchain\avr8\avr8-gnu-toolchain\avr\include\util\delay.h **** 
 137:c:\program files (x86)\atmel\studio\7.0\toolchain\avr8\avr8-gnu-toolchain\avr\include\util\delay.h ****    If the avr-gcc toolchain has __builtin_avr_delay_cycles()
 138:c:\program files (x86)\atmel\studio\7.0\toolchain\avr8\avr8-gnu-toolchain\avr\include\util\delay.h ****    support, maximal possible delay is 4294967.295 ms/ F_CPU in MHz. For
 139:c:\program files (x86)\atmel\studio\7.0\toolchain\avr8\avr8-gnu-toolchain\avr\include\util\delay.h ****    values greater than the maximal possible delay, overflows results in
 140:c:\program files (x86)\atmel\studio\7.0\toolchain\avr8\avr8-gnu-toolchain\avr\include\util\delay.h ****    no delay i.e., 0ms.
 141:c:\program files (x86)\atmel\studio\7.0\toolchain\avr8\avr8-gnu-toolchain\avr\include\util\delay.h **** 
 142:c:\program files (x86)\atmel\studio\7.0\toolchain\avr8\avr8-gnu-toolchain\avr\include\util\delay.h ****    Conversion of \c __ms into clock cycles may not always result in
 143:c:\program files (x86)\atmel\studio\7.0\toolchain\avr8\avr8-gnu-toolchain\avr\include\util\delay.h ****    integer.  By default, the clock cycles rounded up to next
 144:c:\program files (x86)\atmel\studio\7.0\toolchain\avr8\avr8-gnu-toolchain\avr\include\util\delay.h ****    integer. This ensures that the user gets at least \c __ms
 145:c:\program files (x86)\atmel\studio\7.0\toolchain\avr8\avr8-gnu-toolchain\avr\include\util\delay.h ****    microseconds of delay.
 146:c:\program files (x86)\atmel\studio\7.0\toolchain\avr8\avr8-gnu-toolchain\avr\include\util\delay.h **** 
 147:c:\program files (x86)\atmel\studio\7.0\toolchain\avr8\avr8-gnu-toolchain\avr\include\util\delay.h ****    Alternatively, by defining the macro \c __DELAY_ROUND_DOWN__, or
 148:c:\program files (x86)\atmel\studio\7.0\toolchain\avr8\avr8-gnu-toolchain\avr\include\util\delay.h ****    \c __DELAY_ROUND_CLOSEST__, before including this header file, the
 149:c:\program files (x86)\atmel\studio\7.0\toolchain\avr8\avr8-gnu-toolchain\avr\include\util\delay.h ****    algorithm can be made to round down, or round to closest integer,
 150:c:\program files (x86)\atmel\studio\7.0\toolchain\avr8\avr8-gnu-toolchain\avr\include\util\delay.h ****    respectively.
 151:c:\program files (x86)\atmel\studio\7.0\toolchain\avr8\avr8-gnu-toolchain\avr\include\util\delay.h **** 
 152:c:\program files (x86)\atmel\studio\7.0\toolchain\avr8\avr8-gnu-toolchain\avr\include\util\delay.h ****    \note
 153:c:\program files (x86)\atmel\studio\7.0\toolchain\avr8\avr8-gnu-toolchain\avr\include\util\delay.h **** 
 154:c:\program files (x86)\atmel\studio\7.0\toolchain\avr8\avr8-gnu-toolchain\avr\include\util\delay.h ****    The implementation of _delay_ms() based on
 155:c:\program files (x86)\atmel\studio\7.0\toolchain\avr8\avr8-gnu-toolchain\avr\include\util\delay.h ****    __builtin_avr_delay_cycles() is not backward compatible with older
 156:c:\program files (x86)\atmel\studio\7.0\toolchain\avr8\avr8-gnu-toolchain\avr\include\util\delay.h ****    implementations.  In order to get functionality backward compatible
 157:c:\program files (x86)\atmel\studio\7.0\toolchain\avr8\avr8-gnu-toolchain\avr\include\util\delay.h ****    with previous versions, the macro \c "__DELAY_BACKWARD_COMPATIBLE__"
 158:c:\program files (x86)\atmel\studio\7.0\toolchain\avr8\avr8-gnu-toolchain\avr\include\util\delay.h ****    must be defined before including this header file. Also, the
 159:c:\program files (x86)\atmel\studio\7.0\toolchain\avr8\avr8-gnu-toolchain\avr\include\util\delay.h ****    backward compatible algorithm will be chosen if the code is
 160:c:\program files (x86)\atmel\studio\7.0\toolchain\avr8\avr8-gnu-toolchain\avr\include\util\delay.h ****    compiled in a <em>freestanding environment</em> (GCC option
 161:c:\program files (x86)\atmel\studio\7.0\toolchain\avr8\avr8-gnu-toolchain\avr\include\util\delay.h ****    \c -ffreestanding), as the math functions required for rounding are
 162:c:\program files (x86)\atmel\studio\7.0\toolchain\avr8\avr8-gnu-toolchain\avr\include\util\delay.h ****    not available to the compiler then.
 163:c:\program files (x86)\atmel\studio\7.0\toolchain\avr8\avr8-gnu-toolchain\avr\include\util\delay.h **** 
 164:c:\program files (x86)\atmel\studio\7.0\toolchain\avr8\avr8-gnu-toolchain\avr\include\util\delay.h ****  */
 165:c:\program files (x86)\atmel\studio\7.0\toolchain\avr8\avr8-gnu-toolchain\avr\include\util\delay.h **** void
 166:c:\program files (x86)\atmel\studio\7.0\toolchain\avr8\avr8-gnu-toolchain\avr\include\util\delay.h **** _delay_ms(double __ms)
 167:c:\program files (x86)\atmel\studio\7.0\toolchain\avr8\avr8-gnu-toolchain\avr\include\util\delay.h **** {
 168:c:\program files (x86)\atmel\studio\7.0\toolchain\avr8\avr8-gnu-toolchain\avr\include\util\delay.h **** 	double __tmp ;
 169:c:\program files (x86)\atmel\studio\7.0\toolchain\avr8\avr8-gnu-toolchain\avr\include\util\delay.h **** #if __HAS_DELAY_CYCLES && defined(__OPTIMIZE__) && \
 170:c:\program files (x86)\atmel\studio\7.0\toolchain\avr8\avr8-gnu-toolchain\avr\include\util\delay.h ****   !defined(__DELAY_BACKWARD_COMPATIBLE__) &&	   \
 171:c:\program files (x86)\atmel\studio\7.0\toolchain\avr8\avr8-gnu-toolchain\avr\include\util\delay.h ****   __STDC_HOSTED__
 172:c:\program files (x86)\atmel\studio\7.0\toolchain\avr8\avr8-gnu-toolchain\avr\include\util\delay.h **** 	uint32_t __ticks_dc;
 173:c:\program files (x86)\atmel\studio\7.0\toolchain\avr8\avr8-gnu-toolchain\avr\include\util\delay.h **** 	extern void __builtin_avr_delay_cycles(unsigned long);
 174:c:\program files (x86)\atmel\studio\7.0\toolchain\avr8\avr8-gnu-toolchain\avr\include\util\delay.h **** 	__tmp = ((F_CPU) / 1e3) * __ms;
 175:c:\program files (x86)\atmel\studio\7.0\toolchain\avr8\avr8-gnu-toolchain\avr\include\util\delay.h **** 
 176:c:\program files (x86)\atmel\studio\7.0\toolchain\avr8\avr8-gnu-toolchain\avr\include\util\delay.h **** 	#if defined(__DELAY_ROUND_DOWN__)
 177:c:\program files (x86)\atmel\studio\7.0\toolchain\avr8\avr8-gnu-toolchain\avr\include\util\delay.h **** 		__ticks_dc = (uint32_t)fabs(__tmp);
 178:c:\program files (x86)\atmel\studio\7.0\toolchain\avr8\avr8-gnu-toolchain\avr\include\util\delay.h **** 
 179:c:\program files (x86)\atmel\studio\7.0\toolchain\avr8\avr8-gnu-toolchain\avr\include\util\delay.h **** 	#elif defined(__DELAY_ROUND_CLOSEST__)
 180:c:\program files (x86)\atmel\studio\7.0\toolchain\avr8\avr8-gnu-toolchain\avr\include\util\delay.h **** 		__ticks_dc = (uint32_t)(fabs(__tmp)+0.5);
 181:c:\program files (x86)\atmel\studio\7.0\toolchain\avr8\avr8-gnu-toolchain\avr\include\util\delay.h **** 
 182:c:\program files (x86)\atmel\studio\7.0\toolchain\avr8\avr8-gnu-toolchain\avr\include\util\delay.h **** 	#else
 183:c:\program files (x86)\atmel\studio\7.0\toolchain\avr8\avr8-gnu-toolchain\avr\include\util\delay.h **** 		//round up by default
 184:c:\program files (x86)\atmel\studio\7.0\toolchain\avr8\avr8-gnu-toolchain\avr\include\util\delay.h **** 		__ticks_dc = (uint32_t)(ceil(fabs(__tmp)));
 185:c:\program files (x86)\atmel\studio\7.0\toolchain\avr8\avr8-gnu-toolchain\avr\include\util\delay.h **** 	#endif
 186:c:\program files (x86)\atmel\studio\7.0\toolchain\avr8\avr8-gnu-toolchain\avr\include\util\delay.h **** 
 187:c:\program files (x86)\atmel\studio\7.0\toolchain\avr8\avr8-gnu-toolchain\avr\include\util\delay.h **** 	__builtin_avr_delay_cycles(__ticks_dc);
 188:c:\program files (x86)\atmel\studio\7.0\toolchain\avr8\avr8-gnu-toolchain\avr\include\util\delay.h **** 
 189:c:\program files (x86)\atmel\studio\7.0\toolchain\avr8\avr8-gnu-toolchain\avr\include\util\delay.h **** #else
 190:c:\program files (x86)\atmel\studio\7.0\toolchain\avr8\avr8-gnu-toolchain\avr\include\util\delay.h **** 	uint16_t __ticks;
 191:c:\program files (x86)\atmel\studio\7.0\toolchain\avr8\avr8-gnu-toolchain\avr\include\util\delay.h **** 	__tmp = ((F_CPU) / 4e3) * __ms;
 192:c:\program files (x86)\atmel\studio\7.0\toolchain\avr8\avr8-gnu-toolchain\avr\include\util\delay.h **** 	if (__tmp < 1.0)
 193:c:\program files (x86)\atmel\studio\7.0\toolchain\avr8\avr8-gnu-toolchain\avr\include\util\delay.h **** 		__ticks = 1;
 194:c:\program files (x86)\atmel\studio\7.0\toolchain\avr8\avr8-gnu-toolchain\avr\include\util\delay.h **** 	else if (__tmp > 65535)
 195:c:\program files (x86)\atmel\studio\7.0\toolchain\avr8\avr8-gnu-toolchain\avr\include\util\delay.h **** 	{
 196:c:\program files (x86)\atmel\studio\7.0\toolchain\avr8\avr8-gnu-toolchain\avr\include\util\delay.h **** 		//	__ticks = requested delay in 1/10 ms
 197:c:\program files (x86)\atmel\studio\7.0\toolchain\avr8\avr8-gnu-toolchain\avr\include\util\delay.h **** 		__ticks = (uint16_t) (__ms * 10.0);
 198:c:\program files (x86)\atmel\studio\7.0\toolchain\avr8\avr8-gnu-toolchain\avr\include\util\delay.h **** 		while(__ticks)
 418               		.loc 3 198 0
 419 0082 01F4      		brne .L21
 420               	.LVL21:
 421               	.LBE68:
 422               	.LBE67:
 213:../src/main.c **** 		}
 423               		.loc 1 213 0
 424 0084 8091 0000 		lds r24,p2disp
 425 0088 9091 0000 		lds r25,p2disp+1
 426 008c 0E94 0000 		call wrt_ws2812
 427               	.LVL22:
 428 0090 00C0      		rjmp .L19
 429               	.L20:
 218:../src/main.c **** 			_delay_ms(50);
 430               		.loc 1 218 0
 431 0092 0E94 0000 		call Mostrar_Matriz_2
 432               	.LVL23:
 433 0096 84EF      		ldi r24,lo8(-12)
 434 0098 91E0      		ldi r25,lo8(1)
 435               	.LVL24:
 436               	.L23:
 437               	.LBB71:
 438               	.LBB66:
 439               	.LBB65:
 440               	.LBB64:
 441               		.loc 2 105 0
 442 009a FE01      		movw r30,r28
 443               	/* #APP */
 444               	 ;  105 "c:\program files (x86)\atmel\studio\7.0\toolchain\avr8\avr8-gnu-toolchain\avr\include\util
 445 009c 3197      		1: sbiw r30,1
 446 009e 01F4      		brne 1b
 447               	 ;  0 "" 2
 448               	.LVL25:
 449               	/* #NOAPP */
 450 00a0 0197      		sbiw r24,1
 451               	.LVL26:
 452               	.LBE64:
 453               	.LBE65:
 454               		.loc 3 198 0
 455 00a2 01F4      		brne .L23
 456               	.LVL27:
 457               	.LBE66:
 458               	.LBE71:
 220:../src/main.c **** 		}
 459               		.loc 1 220 0
 460 00a4 8091 0000 		lds r24,p2disp
 461 00a8 9091 0000 		lds r25,p2disp+1
 462 00ac 0E94 0000 		call wrt_ws2812
 463               	.LVL28:
 464               	.L19:
 206:../src/main.c **** 	{
 465               		.loc 1 206 0
 466 00b0 8091 0000 		lds r24,ispressed
 467 00b4 9091 0000 		lds r25,ispressed+1
 468 00b8 892B      		or r24,r25
 469 00ba 01F0      		breq .+2
 470 00bc 00C0      		rjmp .L24
 224:../src/main.c **** 	ShootP1();
 471               		.loc 1 224 0
 472 00be 0E94 0000 		call clear_disp
 473               	.LVL29:
 225:../src/main.c **** 	Mostrar_Matriz_2();
 474               		.loc 1 225 0
 475 00c2 0E94 0000 		call ShootP1
 476               	.LVL30:
 226:../src/main.c **** 	
 477               		.loc 1 226 0
 478 00c6 0E94 0000 		call Mostrar_Matriz_2
 479               	.LVL31:
 480 00ca 88EC      		ldi r24,lo8(-56)
 481 00cc 90E0      		ldi r25,0
 482               	.LBB72:
 483               	.LBB73:
 484               	.LBB74:
 485               	.LBB75:
 486               		.loc 2 105 0
 487 00ce 20E9      		ldi r18,lo8(-112)
 488 00d0 31E0      		ldi r19,lo8(1)
 489               	.LVL32:
 490               	.L25:
 491 00d2 F901      		movw r30,r18
 492               	/* #APP */
 493               	 ;  105 "c:\program files (x86)\atmel\studio\7.0\toolchain\avr8\avr8-gnu-toolchain\avr\include\util
 494 00d4 3197      		1: sbiw r30,1
 495 00d6 01F4      		brne 1b
 496               	 ;  0 "" 2
 497               	.LVL33:
 498               	/* #NOAPP */
 499 00d8 0197      		sbiw r24,1
 500               	.LVL34:
 501               	.LBE75:
 502               	.LBE74:
 503               		.loc 3 198 0
 504 00da 01F4      		brne .L25
 505               	.LVL35:
 506               	.LBE73:
 507               	.LBE72:
 229:../src/main.c **** 	_delay_ms(2000);
 508               		.loc 1 229 0
 509 00dc 8091 0000 		lds r24,p2disp
 510 00e0 9091 0000 		lds r25,p2disp+1
 511 00e4 0E94 0000 		call wrt_ws2812
 512               	.LVL36:
 513 00e8 80E2      		ldi r24,lo8(32)
 514 00ea 9EE4      		ldi r25,lo8(78)
 515               	.LBB76:
 516               	.LBB77:
 517               	.LBB78:
 518               	.LBB79:
 519               		.loc 2 105 0
 520 00ec 20E9      		ldi r18,lo8(-112)
 521 00ee 31E0      		ldi r19,lo8(1)
 522               	.LVL37:
 523               	.L26:
 524 00f0 F901      		movw r30,r18
 525               	/* #APP */
 526               	 ;  105 "c:\program files (x86)\atmel\studio\7.0\toolchain\avr8\avr8-gnu-toolchain\avr\include\util
 527 00f2 3197      		1: sbiw r30,1
 528 00f4 01F4      		brne 1b
 529               	 ;  0 "" 2
 530               	.LVL38:
 531               	/* #NOAPP */
 532 00f6 0197      		sbiw r24,1
 533               	.LVL39:
 534               	.LBE79:
 535               	.LBE78:
 536               		.loc 3 198 0
 537 00f8 01F4      		brne .L26
 538               	/* epilogue start */
 539               	.LBE77:
 540               	.LBE76:
 231:../src/main.c **** 
 541               		.loc 1 231 0
 542 00fa DF91      		pop r29
 543 00fc CF91      		pop r28
 544 00fe 0895      		ret
 545               		.cfi_endproc
 546               	.LFE76:
 548               		.section	.text.TurnoP2,"ax",@progbits
 549               	.global	TurnoP2
 551               	TurnoP2:
 552               	.LFB77:
 234:../src/main.c **** 	set_P2();
 553               		.loc 1 234 0
 554               		.cfi_startproc
 555 0000 CF93      		push r28
 556               	.LCFI6:
 557               		.cfi_def_cfa_offset 3
 558               		.cfi_offset 28, -2
 559 0002 DF93      		push r29
 560               	.LCFI7:
 561               		.cfi_def_cfa_offset 4
 562               		.cfi_offset 29, -3
 563               	/* prologue: function */
 564               	/* frame size = 0 */
 565               	/* stack size = 2 */
 566               	.L__stack_usage = 2
 235:../src/main.c **** 	ispressed = 1;
 567               		.loc 1 235 0
 568 0004 0E94 0000 		call set_P2
 569               	.LVL40:
 236:../src/main.c **** 	while (ispressed != 0)
 570               		.loc 1 236 0
 571 0008 81E0      		ldi r24,lo8(1)
 572 000a 90E0      		ldi r25,0
 573 000c 9093 0000 		sts ispressed+1,r25
 574 0010 8093 0000 		sts ispressed,r24
 575               	.LBB80:
 576               	.LBB81:
 577               	.LBB82:
 578               	.LBB83:
 579               		.loc 2 105 0
 580 0014 C0E9      		ldi r28,lo8(-112)
 581 0016 D1E0      		ldi r29,lo8(1)
 582               	.LBE83:
 583               	.LBE82:
 584               	.LBE81:
 585               	.LBE80:
 237:../src/main.c **** 	{
 586               		.loc 1 237 0
 587 0018 00C0      		rjmp .L32
 588               	.L37:
 239:../src/main.c **** 		{
 589               		.loc 1 239 0
 590 001a 8091 0000 		lds r24,ContadorPuntero
 591 001e 9091 0000 		lds r25,ContadorPuntero+1
 592 0022 8A35      		cpi r24,90
 593 0024 9105      		cpc r25,__zero_reg__
 594 0026 00F4      		brsh .L33
 241:../src/main.c **** 			Matriz_RGB[ijoy][jjoy] = punteroP2;
 595               		.loc 1 241 0
 596 0028 0E94 0000 		call Mostrar_Matriz_1
 597               	.LVL41:
 242:../src/main.c **** 			_delay_ms(50);
 598               		.loc 1 242 0
 599 002c 8091 0000 		lds r24,ijoy
 600 0030 9091 0000 		lds r25,ijoy+1
 601 0034 2091 0000 		lds r18,jjoy
 602 0038 3091 0000 		lds r19,jjoy+1
 603 003c F901      		movw r30,r18
 604 003e EE0F      		lsl r30
 605 0040 FF1F      		rol r31
 606 0042 E20F      		add r30,r18
 607 0044 F31F      		adc r31,r19
 608 0046 9C01      		movw r18,r24
 609 0048 220F      		lsl r18
 610 004a 331F      		rol r19
 611 004c 820F      		add r24,r18
 612 004e 931F      		adc r25,r19
 613 0050 880F      		lsl r24
 614 0052 991F      		rol r25
 615 0054 880F      		lsl r24
 616 0056 991F      		rol r25
 617 0058 880F      		lsl r24
 618 005a 991F      		rol r25
 619 005c E80F      		add r30,r24
 620 005e F91F      		adc r31,r25
 621 0060 E050      		subi r30,lo8(-(Matriz_RGB))
 622 0062 F040      		sbci r31,hi8(-(Matriz_RGB))
 623 0064 8091 0000 		lds r24,punteroP2
 624 0068 9091 0000 		lds r25,punteroP2+1
 625 006c A091 0000 		lds r26,punteroP2+2
 626 0070 8083      		st Z,r24
 627 0072 9183      		std Z+1,r25
 628 0074 A283      		std Z+2,r26
 629               	.LVL42:
 630 0076 84EF      		ldi r24,lo8(-12)
 631 0078 91E0      		ldi r25,lo8(1)
 632               	.LVL43:
 633               	.L34:
 634               	.LBB87:
 635               	.LBB88:
 636               	.LBB89:
 637               	.LBB90:
 638               		.loc 2 105 0
 639 007a FE01      		movw r30,r28
 640               	/* #APP */
 641               	 ;  105 "c:\program files (x86)\atmel\studio\7.0\toolchain\avr8\avr8-gnu-toolchain\avr\include\util
 642 007c 3197      		1: sbiw r30,1
 643 007e 01F4      		brne 1b
 644               	 ;  0 "" 2
 645               	.LVL44:
 646               	/* #NOAPP */
 647 0080 0197      		sbiw r24,1
 648               	.LVL45:
 649               	.LBE90:
 650               	.LBE89:
 651               		.loc 3 198 0
 652 0082 01F4      		brne .L34
 653               	.LVL46:
 654               	.LBE88:
 655               	.LBE87:
 244:../src/main.c **** 		}
 656               		.loc 1 244 0
 657 0084 8091 0000 		lds r24,p2disp
 658 0088 9091 0000 		lds r25,p2disp+1
 659 008c 0E94 0000 		call wrt_ws2812
 660               	.LVL47:
 661 0090 00C0      		rjmp .L32
 662               	.L33:
 249:../src/main.c **** 			_delay_ms(50);
 663               		.loc 1 249 0
 664 0092 0E94 0000 		call Mostrar_Matriz_1
 665               	.LVL48:
 666 0096 84EF      		ldi r24,lo8(-12)
 667 0098 91E0      		ldi r25,lo8(1)
 668               	.LVL49:
 669               	.L36:
 670               	.LBB91:
 671               	.LBB86:
 672               	.LBB85:
 673               	.LBB84:
 674               		.loc 2 105 0
 675 009a FE01      		movw r30,r28
 676               	/* #APP */
 677               	 ;  105 "c:\program files (x86)\atmel\studio\7.0\toolchain\avr8\avr8-gnu-toolchain\avr\include\util
 678 009c 3197      		1: sbiw r30,1
 679 009e 01F4      		brne 1b
 680               	 ;  0 "" 2
 681               	.LVL50:
 682               	/* #NOAPP */
 683 00a0 0197      		sbiw r24,1
 684               	.LVL51:
 685               	.LBE84:
 686               	.LBE85:
 687               		.loc 3 198 0
 688 00a2 01F4      		brne .L36
 689               	.LVL52:
 690               	.LBE86:
 691               	.LBE91:
 251:../src/main.c **** 		}
 692               		.loc 1 251 0
 693 00a4 8091 0000 		lds r24,p2disp
 694 00a8 9091 0000 		lds r25,p2disp+1
 695 00ac 0E94 0000 		call wrt_ws2812
 696               	.LVL53:
 697               	.L32:
 237:../src/main.c **** 	{
 698               		.loc 1 237 0
 699 00b0 8091 0000 		lds r24,ispressed
 700 00b4 9091 0000 		lds r25,ispressed+1
 701 00b8 892B      		or r24,r25
 702 00ba 01F0      		breq .+2
 703 00bc 00C0      		rjmp .L37
 255:../src/main.c **** 	ShootP2();
 704               		.loc 1 255 0
 705 00be 0E94 0000 		call clear_disp
 706               	.LVL54:
 256:../src/main.c **** 	Mostrar_Matriz_1();
 707               		.loc 1 256 0
 708 00c2 0E94 0000 		call ShootP2
 709               	.LVL55:
 257:../src/main.c **** 	
 710               		.loc 1 257 0
 711 00c6 0E94 0000 		call Mostrar_Matriz_1
 712               	.LVL56:
 713 00ca 88EC      		ldi r24,lo8(-56)
 714 00cc 90E0      		ldi r25,0
 715               	.LBB92:
 716               	.LBB93:
 717               	.LBB94:
 718               	.LBB95:
 719               		.loc 2 105 0
 720 00ce 20E9      		ldi r18,lo8(-112)
 721 00d0 31E0      		ldi r19,lo8(1)
 722               	.LVL57:
 723               	.L38:
 724 00d2 F901      		movw r30,r18
 725               	/* #APP */
 726               	 ;  105 "c:\program files (x86)\atmel\studio\7.0\toolchain\avr8\avr8-gnu-toolchain\avr\include\util
 727 00d4 3197      		1: sbiw r30,1
 728 00d6 01F4      		brne 1b
 729               	 ;  0 "" 2
 730               	.LVL58:
 731               	/* #NOAPP */
 732 00d8 0197      		sbiw r24,1
 733               	.LVL59:
 734               	.LBE95:
 735               	.LBE94:
 736               		.loc 3 198 0
 737 00da 01F4      		brne .L38
 738               	.LVL60:
 739               	.LBE93:
 740               	.LBE92:
 260:../src/main.c **** 	_delay_ms(2000);
 741               		.loc 1 260 0
 742 00dc 8091 0000 		lds r24,p2disp
 743 00e0 9091 0000 		lds r25,p2disp+1
 744 00e4 0E94 0000 		call wrt_ws2812
 745               	.LVL61:
 746 00e8 80E2      		ldi r24,lo8(32)
 747 00ea 9EE4      		ldi r25,lo8(78)
 748               	.LBB96:
 749               	.LBB97:
 750               	.LBB98:
 751               	.LBB99:
 752               		.loc 2 105 0
 753 00ec 20E9      		ldi r18,lo8(-112)
 754 00ee 31E0      		ldi r19,lo8(1)
 755               	.LVL62:
 756               	.L39:
 757 00f0 F901      		movw r30,r18
 758               	/* #APP */
 759               	 ;  105 "c:\program files (x86)\atmel\studio\7.0\toolchain\avr8\avr8-gnu-toolchain\avr\include\util
 760 00f2 3197      		1: sbiw r30,1
 761 00f4 01F4      		brne 1b
 762               	 ;  0 "" 2
 763               	.LVL63:
 764               	/* #NOAPP */
 765 00f6 0197      		sbiw r24,1
 766               	.LVL64:
 767               	.LBE99:
 768               	.LBE98:
 769               		.loc 3 198 0
 770 00f8 01F4      		brne .L39
 771               	/* epilogue start */
 772               	.LBE97:
 773               	.LBE96:
 262:../src/main.c **** 
 774               		.loc 1 262 0
 775 00fa DF91      		pop r29
 776 00fc CF91      		pop r28
 777 00fe 0895      		ret
 778               		.cfi_endproc
 779               	.LFE77:
 781               		.section	.text.Game_Logic,"ax",@progbits
 782               	.global	Game_Logic
 784               	Game_Logic:
 785               	.LFB75:
 190:../src/main.c **** 	if (Turno == Turn1)
 786               		.loc 1 190 0
 787               		.cfi_startproc
 788               	/* prologue: function */
 789               	/* frame size = 0 */
 790               	/* stack size = 0 */
 791               	.L__stack_usage = 0
 191:../src/main.c **** 	{
 792               		.loc 1 191 0
 793 0000 8091 0000 		lds r24,Turno
 794 0004 8130      		cpi r24,lo8(1)
 795 0006 01F4      		brne .L45
 193:../src/main.c **** 	}
 796               		.loc 1 193 0
 797 0008 0E94 0000 		call TurnoP1
 798               	.LVL65:
 799 000c 0895      		ret
 800               	.L45:
 196:../src/main.c **** 	{
 801               		.loc 1 196 0
 802 000e 8091 0000 		lds r24,Turno
 803 0012 8230      		cpi r24,lo8(2)
 804 0014 01F4      		brne .L44
 198:../src/main.c **** 	}
 805               		.loc 1 198 0
 806 0016 0E94 0000 		call TurnoP2
 807               	.LVL66:
 808               	.L44:
 809 001a 0895      		ret
 810               		.cfi_endproc
 811               	.LFE75:
 813               		.section	.rodata.str1.1,"aMS",@progbits,1
 814               	.LC0:
 815 0000 486F 6C61 		.string	"Hola"
 815      00
 816               		.section	.text.main,"ax",@progbits
 817               	.global	main
 819               	main:
 820               	.LFB72:
 124:../src/main.c **** 			init_ws2812();		//Initialize RGB Display driver
 821               		.loc 1 124 0
 822               		.cfi_startproc
 823               	/* prologue: function */
 824               	/* frame size = 0 */
 825               	/* stack size = 0 */
 826               	.L__stack_usage = 0
 125:../src/main.c **** 			init_RTI();			//Initialize Periodic Real Time Interrupt(Timer)
 827               		.loc 1 125 0
 828 0000 0E94 0000 		call init_ws2812
 829               	.LVL67:
 126:../src/main.c **** 			UART_Init();		//Initialize serial port driver (UART)
 830               		.loc 1 126 0
 831 0004 0E94 0000 		call init_RTI
 832               	.LVL68:
 127:../src/main.c **** 			adc_init();			//Initialize Analog to digital converter (Joystick)
 833               		.loc 1 127 0
 834 0008 0E94 0000 		call UART_Init
 835               	.LVL69:
 128:../src/main.c **** 			joybutton_Init();
 836               		.loc 1 128 0
 837 000c 0E94 0000 		call adc_init
 838               	.LVL70:
 129:../src/main.c **** 			display_init();
 839               		.loc 1 129 0
 840 0010 0E94 0000 		call joybutton_Init
 841               	.LVL71:
 130:../src/main.c **** 		
 842               		.loc 1 130 0
 843 0014 0E94 0000 		call display_init
 844               	.LVL72:
 132:../src/main.c **** 			
 845               		.loc 1 132 0
 846 0018 80E0      		ldi r24,lo8(Matriz_RGB)
 847 001a 90E0      		ldi r25,hi8(Matriz_RGB)
 848 001c 9093 0000 		sts p2disp+1,r25
 849 0020 8093 0000 		sts p2disp,r24
 850               	.LVL73:
 851 0024 FC01      		movw r30,r24
 852 0026 40E0      		ldi r20,lo8(Matriz_RGB+192)
 853 0028 50E0      		ldi r21,hi8(Matriz_RGB+192)
 854 002a 00C0      		rjmp .L48
 855               	.LVL74:
 856               	.L49:
 857               	.LBB100:
 858               	.LBB101:
 137:../src/main.c **** 				
 859               		.loc 1 137 0 discriminator 3
 860 002c 8091 0000 		lds r24,Apagado
 861 0030 9091 0000 		lds r25,Apagado+1
 862 0034 A091 0000 		lds r26,Apagado+2
 863 0038 8193      		st Z+,r24
 864 003a 9193      		st Z+,r25
 865 003c A193      		st Z+,r26
 866               	.LVL75:
 136:../src/main.c **** 				Matriz_RGB[r][c]=Apagado;
 867               		.loc 1 136 0 discriminator 3
 868 003e 2E17      		cp r18,r30
 869 0040 3F07      		cpc r19,r31
 870 0042 01F4      		brne .L49
 871 0044 F901      		movw r30,r18
 872               	.LBE101:
 135:../src/main.c **** 			for(int c=0;c<=7;c++)
 873               		.loc 1 135 0 discriminator 2
 874 0046 2417      		cp r18,r20
 875 0048 3507      		cpc r19,r21
 876 004a 01F0      		breq .L50
 877               	.L48:
 878               	.LVL76:
 879 004c 9F01      		movw r18,r30
 880 004e 285E      		subi r18,-24
 881 0050 3F4F      		sbci r19,-1
 882 0052 00C0      		rjmp .L49
 883               	.LVL77:
 884               	.L50:
 885               	.LBE100:
 139:../src/main.c ****  			
 886               		.loc 1 139 0
 887 0054 80E0      		ldi r24,lo8(.LC0)
 888 0056 90E0      		ldi r25,hi8(.LC0)
 889 0058 0E94 0000 		call UART_putstring
 890               	.LVL78:
 891 005c E0E0      		ldi r30,lo8(Matriz_P1)
 892 005e F0E0      		ldi r31,hi8(Matriz_P1)
 893 0060 40E0      		ldi r20,lo8(Matriz_P1+192)
 894 0062 50E0      		ldi r21,hi8(Matriz_P1+192)
 895 0064 00C0      		rjmp .L51
 896               	.LVL79:
 897               	.L52:
 898               	.LBB102:
 899               	.LBB103:
 143:../src/main.c **** 			
 900               		.loc 1 143 0 discriminator 3
 901 0066 8091 0000 		lds r24,Apagado
 902 006a 9091 0000 		lds r25,Apagado+1
 903 006e A091 0000 		lds r26,Apagado+2
 904 0072 8193      		st Z+,r24
 905 0074 9193      		st Z+,r25
 906 0076 A193      		st Z+,r26
 907               	.LVL80:
 142:../src/main.c **** 				Matriz_P1[r][c]=Apagado;
 908               		.loc 1 142 0 discriminator 3
 909 0078 E217      		cp r30,r18
 910 007a F307      		cpc r31,r19
 911 007c 01F4      		brne .L52
 912 007e F901      		movw r30,r18
 913               	.LBE103:
 141:../src/main.c **** 			for(int c=0;c<=7;c++)
 914               		.loc 1 141 0 discriminator 2
 915 0080 4217      		cp r20,r18
 916 0082 5307      		cpc r21,r19
 917 0084 01F4      		brne .L51
 918 0086 E0E0      		ldi r30,lo8(Matriz_P2)
 919 0088 F0E0      		ldi r31,hi8(Matriz_P2)
 920 008a 40E0      		ldi r20,lo8(Matriz_P2+192)
 921 008c 50E0      		ldi r21,hi8(Matriz_P2+192)
 922 008e 00C0      		rjmp .L53
 923               	.L51:
 924               	.LVL81:
 925 0090 9F01      		movw r18,r30
 926 0092 285E      		subi r18,-24
 927 0094 3F4F      		sbci r19,-1
 928 0096 00C0      		rjmp .L52
 929               	.LVL82:
 930               	.L54:
 931               	.LBE102:
 932               	.LBB104:
 933               	.LBB105:
 147:../src/main.c **** 					
 934               		.loc 1 147 0 discriminator 3
 935 0098 8091 0000 		lds r24,Apagado
 936 009c 9091 0000 		lds r25,Apagado+1
 937 00a0 A091 0000 		lds r26,Apagado+2
 938 00a4 8193      		st Z+,r24
 939 00a6 9193      		st Z+,r25
 940 00a8 A193      		st Z+,r26
 941               	.LVL83:
 146:../src/main.c **** 					Matriz_P2[r][c]=Apagado;
 942               		.loc 1 146 0 discriminator 3
 943 00aa E217      		cp r30,r18
 944 00ac F307      		cpc r31,r19
 945 00ae 01F4      		brne .L54
 946               	.LVL84:
 947 00b0 F901      		movw r30,r18
 948               	.LBE105:
 145:../src/main.c **** 				for(int c=0;c<=7;c++)
 949               		.loc 1 145 0 discriminator 2
 950 00b2 2417      		cp r18,r20
 951 00b4 3507      		cpc r19,r21
 952 00b6 01F0      		breq .L55
 953               	.L53:
 954               	.LVL85:
 955 00b8 9F01      		movw r18,r30
 956 00ba 285E      		subi r18,-24
 957 00bc 3F4F      		sbci r19,-1
 958 00be 00C0      		rjmp .L54
 959               	.LVL86:
 960               	.L55:
 961               	.LBE104:
 149:../src/main.c **** 					
 962               		.loc 1 149 0
 963 00c0 0E94 0000 		call clear_disp
 964               	.LVL87:
 167:../src/main.c **** 
 965               		.loc 1 167 0
 966               	/* #APP */
 967               	 ;  167 "../src/main.c" 1
 968 00c4 7894      		sei
 969               	 ;  0 "" 2
 970               	/* #NOAPP */
 971               	.L56:
 171:../src/main.c **** 			}
 972               		.loc 1 171 0 discriminator 1
 973 00c6 0E94 0000 		call Game_Logic
 974               	.LVL88:
 975 00ca 00C0      		rjmp .L56
 976               		.cfi_endproc
 977               	.LFE72:
 979               		.section	.text.softdelay,"ax",@progbits
 980               	.global	softdelay
 982               	softdelay:
 983               	.LFB81:
 313:../src/main.c **** }
 314:../src/main.c **** 
 315:../src/main.c **** 
 316:../src/main.c **** 
 317:../src/main.c **** void softdelay(void)
 318:../src/main.c **** {
 984               		.loc 1 318 0
 985               		.cfi_startproc
 986 0000 CF93      		push r28
 987               	.LCFI8:
 988               		.cfi_def_cfa_offset 3
 989               		.cfi_offset 28, -2
 990 0002 DF93      		push r29
 991               	.LCFI9:
 992               		.cfi_def_cfa_offset 4
 993               		.cfi_offset 29, -3
 994 0004 00D0      		rcall .
 995 0006 00D0      		rcall .
 996               	.LCFI10:
 997               		.cfi_def_cfa_offset 8
 998 0008 CDB7      		in r28,__SP_L__
 999 000a DEB7      		in r29,__SP_H__
 1000               	.LCFI11:
 1001               		.cfi_def_cfa_register 28
 1002               	/* prologue: function */
 1003               	/* frame size = 4 */
 1004               	/* stack size = 6 */
 1005               	.L__stack_usage = 6
 319:../src/main.c **** 	volatile long int d;
 320:../src/main.c **** 	
 321:../src/main.c **** 	for (d=400000;d;d--)
 1006               		.loc 1 321 0
 1007 000c 80E8      		ldi r24,lo8(-128)
 1008 000e 9AE1      		ldi r25,lo8(26)
 1009 0010 A6E0      		ldi r26,lo8(6)
 1010 0012 B0E0      		ldi r27,0
 1011 0014 8983      		std Y+1,r24
 1012 0016 9A83      		std Y+2,r25
 1013 0018 AB83      		std Y+3,r26
 1014 001a BC83      		std Y+4,r27
 1015 001c 8981      		ldd r24,Y+1
 1016 001e 9A81      		ldd r25,Y+2
 1017 0020 AB81      		ldd r26,Y+3
 1018 0022 BC81      		ldd r27,Y+4
 1019 0024 892B      		or r24,r25
 1020 0026 8A2B      		or r24,r26
 1021 0028 8B2B      		or r24,r27
 1022 002a 01F0      		breq .L61
 1023               	.L64:
 1024               		.loc 1 321 0 is_stmt 0 discriminator 3
 1025 002c 8981      		ldd r24,Y+1
 1026 002e 9A81      		ldd r25,Y+2
 1027 0030 AB81      		ldd r26,Y+3
 1028 0032 BC81      		ldd r27,Y+4
 1029 0034 0197      		sbiw r24,1
 1030 0036 A109      		sbc r26,__zero_reg__
 1031 0038 B109      		sbc r27,__zero_reg__
 1032 003a 8983      		std Y+1,r24
 1033 003c 9A83      		std Y+2,r25
 1034 003e AB83      		std Y+3,r26
 1035 0040 BC83      		std Y+4,r27
 1036 0042 8981      		ldd r24,Y+1
 1037 0044 9A81      		ldd r25,Y+2
 1038 0046 AB81      		ldd r26,Y+3
 1039 0048 BC81      		ldd r27,Y+4
 1040 004a 892B      		or r24,r25
 1041 004c 8A2B      		or r24,r26
 1042 004e 8B2B      		or r24,r27
 1043 0050 01F4      		brne .L64
 1044               	.L61:
 1045               	/* epilogue start */
 322:../src/main.c **** 	{
 323:../src/main.c **** 	};
 324:../src/main.c **** 	
 325:../src/main.c **** }
 1046               		.loc 1 325 0 is_stmt 1
 1047 0052 0F90      		pop __tmp_reg__
 1048 0054 0F90      		pop __tmp_reg__
 1049 0056 0F90      		pop __tmp_reg__
 1050 0058 0F90      		pop __tmp_reg__
 1051 005a DF91      		pop r29
 1052 005c CF91      		pop r28
 1053 005e 0895      		ret
 1054               		.cfi_endproc
 1055               	.LFE81:
 1057               		.comm	Turno,1,1
 1058               		.comm	ispressed,2,1
 1059               		.comm	Matriz_P2,192,1
 1060               		.comm	Matriz_P1,192,1
 1061               		.comm	Player2_Hits,1,1
 1062               		.comm	Player1_Hits,1,1
 1063               		.comm	jjoy,2,1
 1064               		.comm	ijoy,2,1
 1065               	.global	msg
 1066               		.section	.data.msg,"aw",@progbits
 1069               	msg:
 1070 0000 4865 6C6C 		.string	"Hello from ATmega328p\r\n  "
 1070      6F20 6672 
 1070      6F6D 2041 
 1070      546D 6567 
 1070      6133 3238 
 1071               	.global	arriba_max
 1072               		.section	.rodata.arriba_max,"a",@progbits
 1075               	arriba_max:
 1076 0000 0000      		.zero	2
 1077               	.global	arriba_min
 1078               		.section	.rodata.arriba_min,"a",@progbits
 1081               	arriba_min:
 1082 0000 C800      		.word	200
 1083               	.global	abajo_max
 1084               		.section	.rodata.abajo_max,"a",@progbits
 1087               	abajo_max:
 1088 0000 FF03      		.word	1023
 1089               	.global	abajo_min
 1090               		.section	.rodata.abajo_min,"a",@progbits
 1093               	abajo_min:
 1094 0000 2003      		.word	800
 1095               	.global	izquierda_max
 1096               		.section	.rodata.izquierda_max,"a",@progbits
 1099               	izquierda_max:
 1100 0000 0000      		.zero	2
 1101               	.global	izquierda_min
 1102               		.section	.rodata.izquierda_min,"a",@progbits
 1105               	izquierda_min:
 1106 0000 C800      		.word	200
 1107               	.global	derecha_max
 1108               		.section	.rodata.derecha_max,"a",@progbits
 1111               	derecha_max:
 1112 0000 FF03      		.word	1023
 1113               	.global	derecha_min
 1114               		.section	.rodata.derecha_min,"a",@progbits
 1117               	derecha_min:
 1118 0000 2003      		.word	800
 1119               		.comm	ContadorPuntero,2,1
 1120               		.comm	Matriz_RGB,192,1
 1121               	.global	punteroP2
 1122               		.section	.data.punteroP2,"aw",@progbits
 1125               	punteroP2:
 1126 0000 28        		.byte	40
 1127 0001 05        		.byte	5
 1128 0002 19        		.byte	25
 1129               	.global	punteroP1
 1130               		.section	.data.punteroP1,"aw",@progbits
 1133               	punteroP1:
 1134 0000 19        		.byte	25
 1135 0001 0F        		.byte	15
 1136 0002 00        		.byte	0
 1137               	.global	Apagado
 1138               		.section	.bss.Apagado,"aw",@nobits
 1141               	Apagado:
 1142 0000 0000 00   		.zero	3
 1143               	.global	tocado
 1144               		.section	.data.tocado,"aw",@progbits
 1147               	tocado:
 1148 0000 64        		.byte	100
 1149 0001 64        		.byte	100
 1150 0002 19        		.byte	25
 1151               	.global	agua
 1152               		.section	.data.agua,"aw",@progbits
 1155               	agua:
 1156 0000 00        		.byte	0
 1157 0001 00        		.byte	0
 1158 0002 64        		.byte	100
 1159               	.global	hundido
 1160               		.section	.data.hundido,"aw",@progbits
 1163               	hundido:
 1164 0000 00        		.byte	0
 1165 0001 64        		.byte	100
 1166 0002 00        		.byte	0
 1167               	.global	disparado
 1168               		.section	.data.disparado,"aw",@progbits
 1171               	disparado:
 1172 0000 64        		.byte	100
 1173 0001 00        		.byte	0
 1174 0002 00        		.byte	0
 1175               		.comm	p2disp,2,1
 1176               		.text
 1177               	.Letext0:
 1178               		.file 4 "c:\\program files (x86)\\atmel\\studio\\7.0\\toolchain\\avr8\\avr8-gnu-toolchain\\avr\\in
 1179               		.file 5 "../src/Timer.h"
 1180               		.file 6 "../src/UART.h"
 1181               		.file 7 "../src/ADC.h"