
GccMatrixWS2812 V3.elf:     file format elf32-avr

Sections:
Idx Name          Size      VMA       LMA       File off  Algn
  0 .data         00000028  00800100  000009d6  00000a6a  2**0
                  CONTENTS, ALLOC, LOAD, DATA
  1 .text         000009d6  00000000  00000000  00000094  2**1
                  CONTENTS, ALLOC, LOAD, READONLY, CODE
  2 .bss          00000277  00800128  00800128  00000a92  2**0
                  ALLOC
  3 .comment      00000030  00000000  00000000  00000a92  2**0
                  CONTENTS, READONLY
  4 .note.gnu.avr.deviceinfo 00000040  00000000  00000000  00000ac4  2**2
                  CONTENTS, READONLY
  5 .debug_aranges 00000238  00000000  00000000  00000b08  2**3
                  CONTENTS, READONLY, DEBUGGING
  6 .debug_info   00001d28  00000000  00000000  00000d40  2**0
                  CONTENTS, READONLY, DEBUGGING
  7 .debug_abbrev 00000e68  00000000  00000000  00002a68  2**0
                  CONTENTS, READONLY, DEBUGGING
  8 .debug_line   000023cc  00000000  00000000  000038d0  2**0
                  CONTENTS, READONLY, DEBUGGING
  9 .debug_frame  00000410  00000000  00000000  00005c9c  2**2
                  CONTENTS, READONLY, DEBUGGING
 10 .debug_str    00011c94  00000000  00000000  000060ac  2**0
                  CONTENTS, READONLY, DEBUGGING
 11 .debug_loc    00000a11  00000000  00000000  00017d40  2**0
                  CONTENTS, READONLY, DEBUGGING
 12 .debug_ranges 000001c8  00000000  00000000  00018751  2**0
                  CONTENTS, READONLY, DEBUGGING
 13 .debug_macro  00008b9f  00000000  00000000  00018919  2**0
                  CONTENTS, READONLY, DEBUGGING

Disassembly of section .text:

00000000 <__vectors>:
   0:	33 c0       	rjmp	.+102    	; 0x68 <__ctors_end>
   2:	00 00       	nop
   4:	4c c0       	rjmp	.+152    	; 0x9e <__bad_interrupt>
   6:	00 00       	nop
   8:	4a c0       	rjmp	.+148    	; 0x9e <__bad_interrupt>
   a:	00 00       	nop
   c:	48 c0       	rjmp	.+144    	; 0x9e <__bad_interrupt>
   e:	00 00       	nop
  10:	46 c0       	rjmp	.+140    	; 0x9e <__bad_interrupt>
  12:	00 00       	nop
  14:	44 c0       	rjmp	.+136    	; 0x9e <__bad_interrupt>
  16:	00 00       	nop
  18:	42 c0       	rjmp	.+132    	; 0x9e <__bad_interrupt>
  1a:	00 00       	nop
  1c:	40 c0       	rjmp	.+128    	; 0x9e <__bad_interrupt>
  1e:	00 00       	nop
  20:	3e c0       	rjmp	.+124    	; 0x9e <__bad_interrupt>
  22:	00 00       	nop
  24:	3c c0       	rjmp	.+120    	; 0x9e <__bad_interrupt>
  26:	00 00       	nop
  28:	3a c0       	rjmp	.+116    	; 0x9e <__bad_interrupt>
  2a:	00 00       	nop
  2c:	38 c0       	rjmp	.+112    	; 0x9e <__bad_interrupt>
  2e:	00 00       	nop
  30:	36 c0       	rjmp	.+108    	; 0x9e <__bad_interrupt>
  32:	00 00       	nop
  34:	34 c0       	rjmp	.+104    	; 0x9e <__bad_interrupt>
  36:	00 00       	nop
  38:	d2 c1       	rjmp	.+932    	; 0x3de <__vector_14>
  3a:	00 00       	nop
  3c:	30 c0       	rjmp	.+96     	; 0x9e <__bad_interrupt>
  3e:	00 00       	nop
  40:	2e c0       	rjmp	.+92     	; 0x9e <__bad_interrupt>
  42:	00 00       	nop
  44:	2c c0       	rjmp	.+88     	; 0x9e <__bad_interrupt>
  46:	00 00       	nop
  48:	98 c2       	rjmp	.+1328   	; 0x57a <__vector_18>
  4a:	00 00       	nop
  4c:	7d c2       	rjmp	.+1274   	; 0x548 <__vector_19>
  4e:	00 00       	nop
  50:	26 c0       	rjmp	.+76     	; 0x9e <__bad_interrupt>
  52:	00 00       	nop
  54:	24 c0       	rjmp	.+72     	; 0x9e <__bad_interrupt>
  56:	00 00       	nop
  58:	22 c0       	rjmp	.+68     	; 0x9e <__bad_interrupt>
  5a:	00 00       	nop
  5c:	20 c0       	rjmp	.+64     	; 0x9e <__bad_interrupt>
  5e:	00 00       	nop
  60:	1e c0       	rjmp	.+60     	; 0x9e <__bad_interrupt>
  62:	00 00       	nop
  64:	1c c0       	rjmp	.+56     	; 0x9e <__bad_interrupt>
	...

00000068 <__ctors_end>:
  68:	11 24       	eor	r1, r1
  6a:	1f be       	out	0x3f, r1	; 63
  6c:	cf ef       	ldi	r28, 0xFF	; 255
  6e:	d8 e0       	ldi	r29, 0x08	; 8
  70:	de bf       	out	0x3e, r29	; 62
  72:	cd bf       	out	0x3d, r28	; 61

00000074 <__do_copy_data>:
  74:	11 e0       	ldi	r17, 0x01	; 1
  76:	a0 e0       	ldi	r26, 0x00	; 0
  78:	b1 e0       	ldi	r27, 0x01	; 1
  7a:	e6 ed       	ldi	r30, 0xD6	; 214
  7c:	f9 e0       	ldi	r31, 0x09	; 9
  7e:	02 c0       	rjmp	.+4      	; 0x84 <__do_copy_data+0x10>
  80:	05 90       	lpm	r0, Z+
  82:	0d 92       	st	X+, r0
  84:	a8 32       	cpi	r26, 0x28	; 40
  86:	b1 07       	cpc	r27, r17
  88:	d9 f7       	brne	.-10     	; 0x80 <__do_copy_data+0xc>

0000008a <__do_clear_bss>:
  8a:	23 e0       	ldi	r18, 0x03	; 3
  8c:	a8 e2       	ldi	r26, 0x28	; 40
  8e:	b1 e0       	ldi	r27, 0x01	; 1
  90:	01 c0       	rjmp	.+2      	; 0x94 <.do_clear_bss_start>

00000092 <.do_clear_bss_loop>:
  92:	1d 92       	st	X+, r1

00000094 <.do_clear_bss_start>:
  94:	af 39       	cpi	r26, 0x9F	; 159
  96:	b2 07       	cpc	r27, r18
  98:	e1 f7       	brne	.-8      	; 0x92 <.do_clear_bss_loop>
  9a:	3e d4       	rcall	.+2172   	; 0x918 <main>
  9c:	9a c4       	rjmp	.+2356   	; 0x9d2 <_exit>

0000009e <__bad_interrupt>:
  9e:	b0 cf       	rjmp	.-160    	; 0x0 <__vectors>

000000a0 <ss_Init>:
  a0:	4f 93       	push	r20
  a2:	5f 93       	push	r21
  a4:	40 e9       	ldi	r20, 0x90	; 144
  a6:	5a b1       	in	r21, 0x0a	; 10
  a8:	54 2b       	or	r21, r20
  aa:	5a b9       	out	0x0a, r21	; 10
  ac:	41 e0       	ldi	r20, 0x01	; 1
  ae:	54 b1       	in	r21, 0x04	; 4
  b0:	54 2b       	or	r21, r20
  b2:	54 b9       	out	0x04, r21	; 4
  b4:	5f 91       	pop	r21
  b6:	4f 91       	pop	r20
  b8:	08 95       	ret

000000ba <ss_SendByte>:
  ba:	4f 93       	push	r20
  bc:	5f 93       	push	r21
  be:	5f b7       	in	r21, 0x3f	; 63
  c0:	98 94       	clz
  c2:	88 94       	clc
  c4:	48 e0       	ldi	r20, 0x08	; 8

000000c6 <nxtbit>:
  c6:	87 95       	ror	r24
  c8:	10 f0       	brcs	.+4      	; 0xce <setted>
  ca:	28 98       	cbi	0x05, 0	; 5
  cc:	01 c0       	rjmp	.+2      	; 0xd0 <shft>

000000ce <setted>:
  ce:	28 9a       	sbi	0x05, 0	; 5

000000d0 <shft>:
  d0:	5f 9a       	sbi	0x0b, 7	; 11
  d2:	00 00       	nop
  d4:	00 00       	nop
  d6:	5f 98       	cbi	0x0b, 7	; 11
  d8:	4a 95       	dec	r20
  da:	09 f0       	breq	.+2      	; 0xde <allbitsended>
  dc:	f4 cf       	rjmp	.-24     	; 0xc6 <nxtbit>

000000de <allbitsended>:
  de:	5f bf       	out	0x3f, r21	; 63
  e0:	5f 91       	pop	r21
  e2:	4f 91       	pop	r20
  e4:	08 95       	ret

000000e6 <ss_Wrt2Latch>:
  e6:	5c 9a       	sbi	0x0b, 4	; 11
  e8:	00 00       	nop
  ea:	00 00       	nop
  ec:	5c 98       	cbi	0x0b, 4	; 11
  ee:	08 95       	ret

000000f0 <joybutton_Init>:
  f0:	4f 93       	push	r20
  f2:	5f 93       	push	r21
  f4:	40 e1       	ldi	r20, 0x10	; 16
  f6:	5a b5       	in	r21, 0x2a	; 42
  f8:	54 2b       	or	r21, r20
  fa:	5a bd       	out	0x2a, r21	; 42
  fc:	5f 91       	pop	r21
  fe:	4f 91       	pop	r20
 100:	08 95       	ret

00000102 <init_ws2812>:
 102:	7f 93       	push	r23
 104:	74 b1       	in	r23, 0x04	; 4
 106:	72 60       	ori	r23, 0x02	; 2
 108:	74 b9       	out	0x04, r23	; 4
 10a:	75 b1       	in	r23, 0x05	; 5
 10c:	7d 7f       	andi	r23, 0xFD	; 253
 10e:	75 b9       	out	0x05, r23	; 5
 110:	3d d0       	rcall	.+122    	; 0x18c <delay>
 112:	7f 91       	pop	r23
 114:	08 95       	ret

00000116 <wrt_ws2812>:
 116:	f8 94       	cli
 118:	0f 93       	push	r16
 11a:	1f 93       	push	r17
 11c:	4f 93       	push	r20

0000011e <donext>:
 11e:	70 e4       	ldi	r23, 0x40	; 64
 120:	e8 2f       	mov	r30, r24
 122:	f9 2f       	mov	r31, r25

00000124 <loopg>:
 124:	07 d0       	rcall	.+14     	; 0x134 <WritePix>
 126:	7a 95       	dec	r23
 128:	e9 f7       	brne	.-6      	; 0x124 <loopg>
 12a:	4f 91       	pop	r20
 12c:	1f 91       	pop	r17
 12e:	0f 91       	pop	r16
 130:	78 94       	sei
 132:	08 95       	ret

00000134 <WritePix>:
 134:	7f 93       	push	r23
 136:	13 e0       	ldi	r17, 0x03	; 3

00000138 <next_led>:
 138:	01 91       	ld	r16, Z+
 13a:	48 e0       	ldi	r20, 0x08	; 8

0000013c <nextbit>:
 13c:	75 b1       	in	r23, 0x05	; 5
 13e:	72 60       	ori	r23, 0x02	; 2
 140:	75 b9       	out	0x05, r23	; 5
 142:	00 1f       	adc	r16, r16
 144:	78 f0       	brcs	.+30     	; 0x164 <ES1>

00000146 <ES0>:
 146:	00 00       	nop
 148:	75 b1       	in	r23, 0x05	; 5
 14a:	7d 7f       	andi	r23, 0xFD	; 253
 14c:	75 b9       	out	0x05, r23	; 5
	...
 15e:	4a 95       	dec	r20
 160:	69 f7       	brne	.-38     	; 0x13c <nextbit>
 162:	10 c0       	rjmp	.+32     	; 0x184 <txend>

00000164 <ES1>:
	...
 174:	00 00       	nop
 176:	75 b1       	in	r23, 0x05	; 5
 178:	7d 7f       	andi	r23, 0xFD	; 253
 17a:	75 b9       	out	0x05, r23	; 5
 17c:	00 00       	nop
 17e:	4a 95       	dec	r20
 180:	e9 f6       	brne	.-70     	; 0x13c <nextbit>
	...

00000184 <txend>:
 184:	1a 95       	dec	r17
 186:	c1 f6       	brne	.-80     	; 0x138 <next_led>

00000188 <txdone>:
 188:	7f 91       	pop	r23
 18a:	08 95       	ret

0000018c <delay>:
 18c:	3f 93       	push	r19
 18e:	4f 93       	push	r20
 190:	5f 93       	push	r21
 192:	52 e3       	ldi	r21, 0x32	; 50
 194:	3f ef       	ldi	r19, 0xFF	; 255
 196:	4f ef       	ldi	r20, 0xFF	; 255

00000198 <reload>:
 198:	3a 95       	dec	r19
 19a:	f1 f7       	brne	.-4      	; 0x198 <reload>
 19c:	3f ef       	ldi	r19, 0xFF	; 255
 19e:	4a 95       	dec	r20
 1a0:	d9 f7       	brne	.-10     	; 0x198 <reload>
 1a2:	4f ef       	ldi	r20, 0xFF	; 255
 1a4:	5a 95       	dec	r21
 1a6:	c1 f7       	brne	.-16     	; 0x198 <reload>
 1a8:	5f 91       	pop	r21
 1aa:	4f 91       	pop	r20
 1ac:	3f 91       	pop	r19
 1ae:	08 95       	ret

000001b0 <adc_init>:
 1b0:	ea e7       	ldi	r30, 0x7A	; 122
 1b2:	f0 e0       	ldi	r31, 0x00	; 0
 1b4:	80 81       	ld	r24, Z
 1b6:	87 60       	ori	r24, 0x07	; 7
 1b8:	80 83       	st	Z, r24
 1ba:	ac e7       	ldi	r26, 0x7C	; 124
 1bc:	b0 e0       	ldi	r27, 0x00	; 0
 1be:	8c 91       	ld	r24, X
 1c0:	80 64       	ori	r24, 0x40	; 64
 1c2:	8c 93       	st	X, r24
 1c4:	80 81       	ld	r24, Z
 1c6:	80 68       	ori	r24, 0x80	; 128
 1c8:	80 83       	st	Z, r24
 1ca:	80 81       	ld	r24, Z
 1cc:	80 64       	ori	r24, 0x40	; 64
 1ce:	80 83       	st	Z, r24
 1d0:	08 95       	ret

000001d2 <read_adc>:
 1d2:	ec e7       	ldi	r30, 0x7C	; 124
 1d4:	f0 e0       	ldi	r31, 0x00	; 0
 1d6:	90 81       	ld	r25, Z
 1d8:	90 7f       	andi	r25, 0xF0	; 240
 1da:	90 83       	st	Z, r25
 1dc:	90 81       	ld	r25, Z
 1de:	89 2b       	or	r24, r25
 1e0:	80 83       	st	Z, r24
 1e2:	ea e7       	ldi	r30, 0x7A	; 122
 1e4:	f0 e0       	ldi	r31, 0x00	; 0
 1e6:	80 81       	ld	r24, Z
 1e8:	80 64       	ori	r24, 0x40	; 64
 1ea:	80 83       	st	Z, r24
 1ec:	80 81       	ld	r24, Z
 1ee:	86 fd       	sbrc	r24, 6
 1f0:	fd cf       	rjmp	.-6      	; 0x1ec <read_adc+0x1a>
 1f2:	80 91 78 00 	lds	r24, 0x0078	; 0x800078 <__TEXT_REGION_LENGTH__+0x7f8078>
 1f6:	90 91 79 00 	lds	r25, 0x0079	; 0x800079 <__TEXT_REGION_LENGTH__+0x7f8079>
 1fa:	08 95       	ret

000001fc <read_VRY>:
 1fc:	84 e0       	ldi	r24, 0x04	; 4
 1fe:	e9 cf       	rjmp	.-46     	; 0x1d2 <read_adc>
 200:	08 95       	ret

00000202 <read_VRX>:
 202:	85 e0       	ldi	r24, 0x05	; 5
 204:	e6 cf       	rjmp	.-52     	; 0x1d2 <read_adc>
 206:	08 95       	ret

00000208 <QueueInit>:
 208:	8d e2       	ldi	r24, 0x2D	; 45
 20a:	91 e0       	ldi	r25, 0x01	; 1
 20c:	90 93 2b 01 	sts	0x012B, r25	; 0x80012b <pin+0x1>
 210:	80 93 2a 01 	sts	0x012A, r24	; 0x80012a <pin>
 214:	90 93 29 01 	sts	0x0129, r25	; 0x800129 <__data_end+0x1>
 218:	80 93 28 01 	sts	0x0128, r24	; 0x800128 <__data_end>
 21c:	10 92 2c 01 	sts	0x012C, r1	; 0x80012c <news>
 220:	08 95       	ret

00000222 <PushQueue>:
 222:	90 91 2c 01 	lds	r25, 0x012C	; 0x80012c <news>
 226:	94 31       	cpi	r25, 0x14	; 20
 228:	20 f0       	brcs	.+8      	; 0x232 <PushQueue+0x10>
 22a:	8f ef       	ldi	r24, 0xFF	; 255
 22c:	80 93 2c 01 	sts	0x012C, r24	; 0x80012c <news>
 230:	08 95       	ret
 232:	e0 91 2a 01 	lds	r30, 0x012A	; 0x80012a <pin>
 236:	f0 91 2b 01 	lds	r31, 0x012B	; 0x80012b <pin+0x1>
 23a:	9f 01       	movw	r18, r30
 23c:	2f 5f       	subi	r18, 0xFF	; 255
 23e:	3f 4f       	sbci	r19, 0xFF	; 255
 240:	30 93 2b 01 	sts	0x012B, r19	; 0x80012b <pin+0x1>
 244:	20 93 2a 01 	sts	0x012A, r18	; 0x80012a <pin>
 248:	80 83       	st	Z, r24
 24a:	81 e0       	ldi	r24, 0x01	; 1
 24c:	89 0f       	add	r24, r25
 24e:	80 93 2c 01 	sts	0x012C, r24	; 0x80012c <news>
 252:	21 54       	subi	r18, 0x41	; 65
 254:	31 40       	sbci	r19, 0x01	; 1
 256:	31 f4       	brne	.+12     	; 0x264 <PushQueue+0x42>
 258:	2d e2       	ldi	r18, 0x2D	; 45
 25a:	31 e0       	ldi	r19, 0x01	; 1
 25c:	30 93 2b 01 	sts	0x012B, r19	; 0x80012b <pin+0x1>
 260:	20 93 2a 01 	sts	0x012A, r18	; 0x80012a <pin>
 264:	08 95       	ret

00000266 <display_init>:
extern void ss_SendByte(uint8_t);
extern void ss_Wrt2Latch(void);

void display_init(void)
{
	ss_Init();
 266:	1c df       	rcall	.-456    	; 0xa0 <ss_Init>
	Digit_values[2] = 0b10010001;
 268:	81 e9       	ldi	r24, 0x91	; 145
 26a:	80 93 49 01 	sts	0x0149, r24	; 0x800149 <Digit_values+0x2>
 26e:	08 95       	ret

00000270 <display_resfesh>:

//La función display_resfesh() deberá ser llamada desde la
//interrupción periódica cada 4ms (Timer.c)

void display_resfesh(uint8_t displayvalue)
{
 270:	cf 93       	push	r28
 272:	df 93       	push	r29
	ss_SendByte(Digit_values[displayvalue]);
 274:	c8 2f       	mov	r28, r24
 276:	d0 e0       	ldi	r29, 0x00	; 0
 278:	fe 01       	movw	r30, r28
 27a:	e9 5b       	subi	r30, 0xB9	; 185
 27c:	fe 4f       	sbci	r31, 0xFE	; 254
 27e:	80 81       	ld	r24, Z
 280:	1c df       	rcall	.-456    	; 0xba <ss_SendByte>
	ss_SendByte(Digit_selector[displayvalue]);
 282:	c0 50       	subi	r28, 0x00	; 0
 284:	df 4f       	sbci	r29, 0xFF	; 255
 286:	88 81       	ld	r24, Y
	ss_Wrt2Latch();
 288:	18 df       	rcall	.-464    	; 0xba <ss_SendByte>
 28a:	2d df       	rcall	.-422    	; 0xe6 <ss_Wrt2Latch>
}
 28c:	df 91       	pop	r29
 28e:	cf 91       	pop	r28
 290:	08 95       	ret

00000292 <set_P1>:
void set_P1(void)
{
	Digit_values[0] = Player_table[0];
 292:	a7 e4       	ldi	r26, 0x47	; 71
 294:	b1 e0       	ldi	r27, 0x01	; 1
 296:	e4 e0       	ldi	r30, 0x04	; 4
 298:	f1 e0       	ldi	r31, 0x01	; 1
 29a:	80 81       	ld	r24, Z
 29c:	8c 93       	st	X, r24
	Digit_values[1] = Player_table[1];
 29e:	81 81       	ldd	r24, Z+1	; 0x01
 2a0:	11 96       	adiw	r26, 0x01	; 1
 2a2:	8c 93       	st	X, r24
 2a4:	11 97       	sbiw	r26, 0x01	; 1
	Digit_values[3] = SS_table[Player1_Hits];
 2a6:	e0 91 42 01 	lds	r30, 0x0142	; 0x800142 <Player1_Hits>
 2aa:	f0 e0       	ldi	r31, 0x00	; 0
 2ac:	e8 5f       	subi	r30, 0xF8	; 248
 2ae:	fe 4f       	sbci	r31, 0xFE	; 254
 2b0:	80 81       	ld	r24, Z
 2b2:	13 96       	adiw	r26, 0x03	; 3
 2b4:	8c 93       	st	X, r24
 2b6:	08 95       	ret

000002b8 <set_P2>:
}
void set_P2(void)
{
	Digit_values[0] = Player_table[2];
 2b8:	a7 e4       	ldi	r26, 0x47	; 71
 2ba:	b1 e0       	ldi	r27, 0x01	; 1
 2bc:	e4 e0       	ldi	r30, 0x04	; 4
 2be:	f1 e0       	ldi	r31, 0x01	; 1
 2c0:	82 81       	ldd	r24, Z+2	; 0x02
 2c2:	8c 93       	st	X, r24
	Digit_values[1] = Player_table[3];
 2c4:	83 81       	ldd	r24, Z+3	; 0x03
 2c6:	11 96       	adiw	r26, 0x01	; 1
 2c8:	8c 93       	st	X, r24
 2ca:	11 97       	sbiw	r26, 0x01	; 1
	Digit_values[3] = SS_table[Player2_Hits];
 2cc:	e0 91 41 01 	lds	r30, 0x0141	; 0x800141 <Player2_Hits>
 2d0:	f0 e0       	ldi	r31, 0x00	; 0
 2d2:	e8 5f       	subi	r30, 0xF8	; 248
 2d4:	fe 4f       	sbci	r31, 0xFE	; 254
 2d6:	80 81       	ld	r24, Z
 2d8:	13 96       	adiw	r26, 0x03	; 3
 2da:	8c 93       	st	X, r24
 2dc:	08 95       	ret

000002de <button_check>:



uint8_t button_check(void)
{
	ispressed = (PIND & (1<<6));
 2de:	89 b1       	in	r24, 0x09	; 9
 2e0:	80 74       	andi	r24, 0x40	; 64
 2e2:	90 e0       	ldi	r25, 0x00	; 0
 2e4:	90 93 4c 01 	sts	0x014C, r25	; 0x80014c <ispressed+0x1>
 2e8:	80 93 4b 01 	sts	0x014B, r24	; 0x80014b <ispressed>
	return (ispressed);
 2ec:	80 91 4b 01 	lds	r24, 0x014B	; 0x80014b <ispressed>
 2f0:	90 91 4c 01 	lds	r25, 0x014C	; 0x80014c <ispressed+0x1>
}
 2f4:	08 95       	ret

000002f6 <Joystick>:

volatile int ijoy,jjoy;
volatile int ispressed;
void Joystick(void)
{
	if (button_check() == pressed)
 2f6:	f3 df       	rcall	.-26     	; 0x2de <button_check>
 2f8:	88 23       	and	r24, r24
 2fa:	09 f4       	brne	.+2      	; 0x2fe <Joystick+0x8>
 2fc:	66 c0       	rjmp	.+204    	; 0x3ca <Joystick+0xd4>
	{
		/*UART_putstring("Boton apretado \n");*/
	}
	else if ((read_VRX()  >= 700))
 2fe:	81 df       	rcall	.-254    	; 0x202 <read_VRX>
 300:	8c 3b       	cpi	r24, 0xBC	; 188
 302:	92 40       	sbci	r25, 0x02	; 2
 304:	88 f0       	brcs	.+34     	; 0x328 <Joystick+0x32>
 306:	80 91 4d 01 	lds	r24, 0x014D	; 0x80014d <ijoy>
	{
		if (ijoy < 7)
 30a:	90 91 4e 01 	lds	r25, 0x014E	; 0x80014e <ijoy+0x1>
 30e:	07 97       	sbiw	r24, 0x07	; 7
 310:	0c f0       	brlt	.+2      	; 0x314 <Joystick+0x1e>
 312:	5b c0       	rjmp	.+182    	; 0x3ca <Joystick+0xd4>
 314:	80 91 4d 01 	lds	r24, 0x014D	; 0x80014d <ijoy>
		{
			ijoy++; //se mueve 1 a la derecha
 318:	90 91 4e 01 	lds	r25, 0x014E	; 0x80014e <ijoy+0x1>
 31c:	01 96       	adiw	r24, 0x01	; 1
 31e:	90 93 4e 01 	sts	0x014E, r25	; 0x80014e <ijoy+0x1>
 322:	80 93 4d 01 	sts	0x014D, r24	; 0x80014d <ijoy>
 326:	08 95       	ret
		}
	}
	else if ((read_VRX()  ==  0) && (read_VRY()  >=  0) && (read_VRY()  <=  1023))
 328:	6c df       	rcall	.-296    	; 0x202 <read_VRX>
 32a:	89 2b       	or	r24, r25
 32c:	b9 f4       	brne	.+46     	; 0x35c <Joystick+0x66>
 32e:	66 df       	rcall	.-308    	; 0x1fc <read_VRY>
 330:	65 df       	rcall	.-310    	; 0x1fc <read_VRY>
 332:	81 15       	cp	r24, r1
 334:	94 40       	sbci	r25, 0x04	; 4
 336:	90 f4       	brcc	.+36     	; 0x35c <Joystick+0x66>
 338:	80 91 4d 01 	lds	r24, 0x014D	; 0x80014d <ijoy>
	{
		if (ijoy > 0)
 33c:	90 91 4e 01 	lds	r25, 0x014E	; 0x80014e <ijoy+0x1>
 340:	18 16       	cp	r1, r24
 342:	19 06       	cpc	r1, r25
 344:	0c f0       	brlt	.+2      	; 0x348 <Joystick+0x52>
 346:	41 c0       	rjmp	.+130    	; 0x3ca <Joystick+0xd4>
 348:	80 91 4d 01 	lds	r24, 0x014D	; 0x80014d <ijoy>
		{
			ijoy--; //se mueve 1 a la izquierda
 34c:	90 91 4e 01 	lds	r25, 0x014E	; 0x80014e <ijoy+0x1>
 350:	01 97       	sbiw	r24, 0x01	; 1
 352:	90 93 4e 01 	sts	0x014E, r25	; 0x80014e <ijoy+0x1>
 356:	80 93 4d 01 	sts	0x014D, r24	; 0x80014d <ijoy>
		}
	}

	else if ((read_VRX()  >=  0) && (read_VRX()  <=  1023) && (read_VRY()  >=  0) && (read_VRY()  <=  200))
 35a:	08 95       	ret
 35c:	52 df       	rcall	.-348    	; 0x202 <read_VRX>
 35e:	51 df       	rcall	.-350    	; 0x202 <read_VRX>
 360:	81 15       	cp	r24, r1
 362:	94 40       	sbci	r25, 0x04	; 4
 364:	a8 f4       	brcc	.+42     	; 0x390 <Joystick+0x9a>
 366:	4a df       	rcall	.-364    	; 0x1fc <read_VRY>
 368:	49 df       	rcall	.-366    	; 0x1fc <read_VRY>
 36a:	89 3c       	cpi	r24, 0xC9	; 201
 36c:	91 05       	cpc	r25, r1
 36e:	80 f4       	brcc	.+32     	; 0x390 <Joystick+0x9a>
 370:	80 91 4f 01 	lds	r24, 0x014F	; 0x80014f <jjoy>
	{
		if (jjoy < 7)
 374:	90 91 50 01 	lds	r25, 0x0150	; 0x800150 <jjoy+0x1>
 378:	07 97       	sbiw	r24, 0x07	; 7
 37a:	3c f5       	brge	.+78     	; 0x3ca <Joystick+0xd4>
 37c:	80 91 4f 01 	lds	r24, 0x014F	; 0x80014f <jjoy>
		{
			jjoy++; //se mueve 1 hacia arriba
 380:	90 91 50 01 	lds	r25, 0x0150	; 0x800150 <jjoy+0x1>
 384:	01 96       	adiw	r24, 0x01	; 1
 386:	90 93 50 01 	sts	0x0150, r25	; 0x800150 <jjoy+0x1>
 38a:	80 93 4f 01 	sts	0x014F, r24	; 0x80014f <jjoy>
		}
	}
	else if ((read_VRX()  >=  0) && (read_VRX()  <=  1023) && (read_VRY()  >=  700)&& (read_VRY()  <=  1023))
 38e:	08 95       	ret
 390:	38 df       	rcall	.-400    	; 0x202 <read_VRX>
 392:	37 df       	rcall	.-402    	; 0x202 <read_VRX>
 394:	81 15       	cp	r24, r1
 396:	94 40       	sbci	r25, 0x04	; 4
 398:	c0 f4       	brcc	.+48     	; 0x3ca <Joystick+0xd4>
 39a:	30 df       	rcall	.-416    	; 0x1fc <read_VRY>
 39c:	8c 3b       	cpi	r24, 0xBC	; 188
 39e:	92 40       	sbci	r25, 0x02	; 2
 3a0:	a0 f0       	brcs	.+40     	; 0x3ca <Joystick+0xd4>
 3a2:	2c df       	rcall	.-424    	; 0x1fc <read_VRY>
 3a4:	81 15       	cp	r24, r1
 3a6:	94 40       	sbci	r25, 0x04	; 4
 3a8:	80 f4       	brcc	.+32     	; 0x3ca <Joystick+0xd4>
 3aa:	80 91 4f 01 	lds	r24, 0x014F	; 0x80014f <jjoy>
	{
		if (jjoy > 0)
 3ae:	90 91 50 01 	lds	r25, 0x0150	; 0x800150 <jjoy+0x1>
 3b2:	18 16       	cp	r1, r24
 3b4:	19 06       	cpc	r1, r25
 3b6:	4c f4       	brge	.+18     	; 0x3ca <Joystick+0xd4>
 3b8:	80 91 4f 01 	lds	r24, 0x014F	; 0x80014f <jjoy>
		{
			jjoy--; //se mueve 1 hacia abajo
 3bc:	90 91 50 01 	lds	r25, 0x0150	; 0x800150 <jjoy+0x1>
 3c0:	01 97       	sbiw	r24, 0x01	; 1
 3c2:	90 93 50 01 	sts	0x0150, r25	; 0x800150 <jjoy+0x1>
 3c6:	80 93 4f 01 	sts	0x014F, r24	; 0x80014f <jjoy>
 3ca:	08 95       	ret

000003cc <init_RTI>:
	//  COM0A1=0,COM0A0=0 Normal port operation, OC0A disconnected.
	//


	// 1-Timer Mode: CTC
	TCCR0A=(0<<COM0A1)|(0<<COM0A0)|(0<<COM0B1)|(0<<COM0B0)|(1<<WGM01)|(0<<WGM00);
 3cc:	82 e0       	ldi	r24, 0x02	; 2
 3ce:	84 bd       	out	0x24, r24	; 36
	
	

	// 2-Clock select:Prescaler=256
	TCCR0B=(0<<FOC0A)|(0<<FOC0B)|(0<<WGM02)|PRESCALER;
 3d0:	94 e0       	ldi	r25, 0x04	; 4
 3d2:	95 bd       	out	0x25, r25	; 37
	

	// 3-Set OCR
	OCR0A=125;
 3d4:	9d e7       	ldi	r25, 0x7D	; 125
 3d6:	97 bd       	out	0x27, r25	; 39


	// 4-Timer/Counter0 Output Compare Match A Interrupt Enable
	TIMSK0=(0<<OCIE0B)|(1<<OCIE0A)|(0<<TOIE0);
 3d8:	80 93 6e 00 	sts	0x006E, r24	; 0x80006e <__TEXT_REGION_LENGTH__+0x7f806e>
 3dc:	08 95       	ret

000003de <__vector_14>:
}

//Interrupt service routine (ISR) for Timer 0
// Timer int happens every (16MHz)^(-1)*1024*125 = 62.5ns*1024*125 = 64 * 125 useg = 2mseg
ISR(TIMER0_COMPA_vect)
{
 3de:	1f 92       	push	r1
 3e0:	0f 92       	push	r0
 3e2:	0f b6       	in	r0, 0x3f	; 63
 3e4:	0f 92       	push	r0
 3e6:	11 24       	eor	r1, r1
 3e8:	2f 93       	push	r18
 3ea:	3f 93       	push	r19
 3ec:	4f 93       	push	r20
 3ee:	5f 93       	push	r21
 3f0:	6f 93       	push	r22
 3f2:	7f 93       	push	r23
 3f4:	8f 93       	push	r24
 3f6:	9f 93       	push	r25
 3f8:	af 93       	push	r26
 3fa:	bf 93       	push	r27
 3fc:	ef 93       	push	r30
 3fe:	ff 93       	push	r31
	display_resfesh(digit_display);
 400:	80 91 43 01 	lds	r24, 0x0143	; 0x800143 <digit_display>
 404:	35 df       	rcall	.-406    	; 0x270 <display_resfesh>
	if (digit_display < AllBytesSended)
 406:	80 91 43 01 	lds	r24, 0x0143	; 0x800143 <digit_display>
 40a:	83 30       	cpi	r24, 0x03	; 3
 40c:	20 f4       	brcc	.+8      	; 0x416 <__EEPROM_REGION_LENGTH__+0x16>
	{
		digit_display++;
 40e:	8f 5f       	subi	r24, 0xFF	; 255
 410:	80 93 43 01 	sts	0x0143, r24	; 0x800143 <digit_display>
 414:	02 c0       	rjmp	.+4      	; 0x41a <__EEPROM_REGION_LENGTH__+0x1a>
	}
	
	else
	{
		digit_display = NoByteSended;
 416:	10 92 43 01 	sts	0x0143, r1	; 0x800143 <digit_display>
	}
	
	if(Joystick_CountTimer)			// 2mseg x 150 = 300 mseg
 41a:	80 91 17 01 	lds	r24, 0x0117	; 0x800117 <Joystick_CountTimer>
 41e:	90 91 18 01 	lds	r25, 0x0118	; 0x800118 <Joystick_CountTimer+0x1>
 422:	00 97       	sbiw	r24, 0x00	; 0
 424:	31 f0       	breq	.+12     	; 0x432 <__EEPROM_REGION_LENGTH__+0x32>
	{
		Joystick_CountTimer--;
 426:	01 97       	sbiw	r24, 0x01	; 1
 428:	90 93 18 01 	sts	0x0118, r25	; 0x800118 <Joystick_CountTimer+0x1>
 42c:	80 93 17 01 	sts	0x0117, r24	; 0x800117 <Joystick_CountTimer>
 430:	07 c0       	rjmp	.+14     	; 0x440 <__EEPROM_REGION_LENGTH__+0x40>
	}

	else
	{
		Joystick_CountTimer=TwoMiliSeg;
 432:	84 e6       	ldi	r24, 0x64	; 100
 434:	90 e0       	ldi	r25, 0x00	; 0
 436:	90 93 18 01 	sts	0x0118, r25	; 0x800118 <Joystick_CountTimer+0x1>
 43a:	80 93 17 01 	sts	0x0117, r24	; 0x800117 <Joystick_CountTimer>
		Joystick();
 43e:	5b df       	rcall	.-330    	; 0x2f6 <Joystick>
	}
	if (Joystickbutton_CountTimer)
 440:	80 91 15 01 	lds	r24, 0x0115	; 0x800115 <Joystickbutton_CountTimer>
 444:	90 91 16 01 	lds	r25, 0x0116	; 0x800116 <Joystickbutton_CountTimer+0x1>
 448:	00 97       	sbiw	r24, 0x00	; 0
 44a:	31 f0       	breq	.+12     	; 0x458 <__EEPROM_REGION_LENGTH__+0x58>
	{
		Joystickbutton_CountTimer --;
 44c:	01 97       	sbiw	r24, 0x01	; 1
 44e:	90 93 16 01 	sts	0x0116, r25	; 0x800116 <Joystickbutton_CountTimer+0x1>
 452:	80 93 15 01 	sts	0x0115, r24	; 0x800115 <Joystickbutton_CountTimer>
 456:	24 c0       	rjmp	.+72     	; 0x4a0 <__EEPROM_REGION_LENGTH__+0xa0>
	}
	
	else
	{
		Joystickbutton_CountTimer = OneMiliSeg;
 458:	82 e3       	ldi	r24, 0x32	; 50
 45a:	90 e0       	ldi	r25, 0x00	; 0
 45c:	90 93 16 01 	sts	0x0116, r25	; 0x800116 <Joystickbutton_CountTimer+0x1>
 460:	80 93 15 01 	sts	0x0115, r24	; 0x800115 <Joystickbutton_CountTimer>
		if (button_check() == 0)
 464:	3c df       	rcall	.-392    	; 0x2de <button_check>
 466:	81 11       	cpse	r24, r1
 468:	1b c0       	rjmp	.+54     	; 0x4a0 <__EEPROM_REGION_LENGTH__+0xa0>
		{
			if (Turno == 1)
 46a:	80 91 12 01 	lds	r24, 0x0112	; 0x800112 <Turno>
 46e:	81 30       	cpi	r24, 0x01	; 1
 470:	51 f4       	brne	.+20     	; 0x486 <__EEPROM_REGION_LENGTH__+0x86>
			{
				Turno = 2;
 472:	82 e0       	ldi	r24, 0x02	; 2
 474:	80 93 12 01 	sts	0x0112, r24	; 0x800112 <Turno>
				Joystickbutton_CountTimer = OneSeg;
 478:	84 ef       	ldi	r24, 0xF4	; 244
 47a:	91 e0       	ldi	r25, 0x01	; 1
 47c:	90 93 16 01 	sts	0x0116, r25	; 0x800116 <Joystickbutton_CountTimer+0x1>
 480:	80 93 15 01 	sts	0x0115, r24	; 0x800115 <Joystickbutton_CountTimer>
 484:	0d c0       	rjmp	.+26     	; 0x4a0 <__EEPROM_REGION_LENGTH__+0xa0>
			}
			
			else if (Turno == 2)
 486:	80 91 12 01 	lds	r24, 0x0112	; 0x800112 <Turno>
 48a:	82 30       	cpi	r24, 0x02	; 2
 48c:	49 f4       	brne	.+18     	; 0x4a0 <__EEPROM_REGION_LENGTH__+0xa0>
			{
				Turno = 1;
 48e:	81 e0       	ldi	r24, 0x01	; 1
 490:	80 93 12 01 	sts	0x0112, r24	; 0x800112 <Turno>
				Joystickbutton_CountTimer = OneSeg;
 494:	84 ef       	ldi	r24, 0xF4	; 244
 496:	91 e0       	ldi	r25, 0x01	; 1
 498:	90 93 16 01 	sts	0x0116, r25	; 0x800116 <Joystickbutton_CountTimer+0x1>
 49c:	80 93 15 01 	sts	0x0115, r24	; 0x800115 <Joystickbutton_CountTimer>
			}
		}
	}
	if (ContadorPuntero)
 4a0:	80 91 13 01 	lds	r24, 0x0113	; 0x800113 <ContadorPuntero>
 4a4:	90 91 14 01 	lds	r25, 0x0114	; 0x800114 <ContadorPuntero+0x1>
 4a8:	89 2b       	or	r24, r25
 4aa:	51 f0       	breq	.+20     	; 0x4c0 <__EEPROM_REGION_LENGTH__+0xc0>
	{
		ContadorPuntero--;
 4ac:	80 91 13 01 	lds	r24, 0x0113	; 0x800113 <ContadorPuntero>
 4b0:	90 91 14 01 	lds	r25, 0x0114	; 0x800114 <ContadorPuntero+0x1>
 4b4:	01 97       	sbiw	r24, 0x01	; 1
 4b6:	90 93 14 01 	sts	0x0114, r25	; 0x800114 <ContadorPuntero+0x1>
 4ba:	80 93 13 01 	sts	0x0113, r24	; 0x800113 <ContadorPuntero>
 4be:	06 c0       	rjmp	.+12     	; 0x4cc <__EEPROM_REGION_LENGTH__+0xcc>
	}
	else
	{
		ContadorPuntero = HalfSeg;
 4c0:	8a ef       	ldi	r24, 0xFA	; 250
 4c2:	90 e0       	ldi	r25, 0x00	; 0
 4c4:	90 93 14 01 	sts	0x0114, r25	; 0x800114 <ContadorPuntero+0x1>
 4c8:	80 93 13 01 	sts	0x0113, r24	; 0x800113 <ContadorPuntero>
	}
 4cc:	ff 91       	pop	r31
 4ce:	ef 91       	pop	r30
 4d0:	bf 91       	pop	r27
 4d2:	af 91       	pop	r26
 4d4:	9f 91       	pop	r25
 4d6:	8f 91       	pop	r24
 4d8:	7f 91       	pop	r23
 4da:	6f 91       	pop	r22
 4dc:	5f 91       	pop	r21
 4de:	4f 91       	pop	r20
 4e0:	3f 91       	pop	r19
 4e2:	2f 91       	pop	r18
 4e4:	0f 90       	pop	r0
 4e6:	0f be       	out	0x3f, r0	; 63
 4e8:	0f 90       	pop	r0
 4ea:	1f 90       	pop	r1
 4ec:	18 95       	reti

000004ee <UART_Init>:
 4ee:	10 92 c5 00 	sts	0x00C5, r1	; 0x8000c5 <__TEXT_REGION_LENGTH__+0x7f80c5>
 4f2:	87 e6       	ldi	r24, 0x67	; 103
 4f4:	80 93 c4 00 	sts	0x00C4, r24	; 0x8000c4 <__TEXT_REGION_LENGTH__+0x7f80c4>
 4f8:	86 e0       	ldi	r24, 0x06	; 6
 4fa:	80 93 c2 00 	sts	0x00C2, r24	; 0x8000c2 <__TEXT_REGION_LENGTH__+0x7f80c2>
 4fe:	e1 ec       	ldi	r30, 0xC1	; 193
 500:	f0 e0       	ldi	r31, 0x00	; 0
 502:	88 e1       	ldi	r24, 0x18	; 24
 504:	80 83       	st	Z, r24
 506:	80 81       	ld	r24, Z
 508:	80 68       	ori	r24, 0x80	; 128
 50a:	80 83       	st	Z, r24
 50c:	7d de       	rcall	.-774    	; 0x208 <QueueInit>
 50e:	8f e9       	ldi	r24, 0x9F	; 159
 510:	9f e0       	ldi	r25, 0x0F	; 15
 512:	01 97       	sbiw	r24, 0x01	; 1
 514:	f1 f7       	brne	.-4      	; 0x512 <UART_Init+0x24>
 516:	00 c0       	rjmp	.+0      	; 0x518 <UART_Init+0x2a>
 518:	00 00       	nop
 51a:	08 95       	ret

0000051c <UART_TransmitPolling>:
 51c:	e0 ec       	ldi	r30, 0xC0	; 192
 51e:	f0 e0       	ldi	r31, 0x00	; 0
 520:	90 81       	ld	r25, Z
 522:	95 ff       	sbrs	r25, 5
 524:	fd cf       	rjmp	.-6      	; 0x520 <UART_TransmitPolling+0x4>
 526:	80 93 c6 00 	sts	0x00C6, r24	; 0x8000c6 <__TEXT_REGION_LENGTH__+0x7f80c6>
 52a:	08 95       	ret

0000052c <UART_putstring>:
 52c:	cf 93       	push	r28
 52e:	df 93       	push	r29
 530:	ec 01       	movw	r28, r24
 532:	88 81       	ld	r24, Y
 534:	88 23       	and	r24, r24
 536:	29 f0       	breq	.+10     	; 0x542 <UART_putstring+0x16>
 538:	21 96       	adiw	r28, 0x01	; 1
 53a:	f0 df       	rcall	.-32     	; 0x51c <UART_TransmitPolling>
 53c:	89 91       	ld	r24, Y+
 53e:	81 11       	cpse	r24, r1
 540:	fc cf       	rjmp	.-8      	; 0x53a <UART_putstring+0xe>
 542:	df 91       	pop	r29
 544:	cf 91       	pop	r28
 546:	08 95       	ret

00000548 <__vector_19>:
 548:	1f 92       	push	r1
 54a:	0f 92       	push	r0
 54c:	0f b6       	in	r0, 0x3f	; 63
 54e:	0f 92       	push	r0
 550:	11 24       	eor	r1, r1
 552:	8f 93       	push	r24
 554:	ef 93       	push	r30
 556:	ff 93       	push	r31
 558:	80 91 5c 01 	lds	r24, 0x015C	; 0x80015c <USART_TransmitBuffer>
 55c:	80 93 c6 00 	sts	0x00C6, r24	; 0x8000c6 <__TEXT_REGION_LENGTH__+0x7f80c6>
 560:	e1 ec       	ldi	r30, 0xC1	; 193
 562:	f0 e0       	ldi	r31, 0x00	; 0
 564:	80 81       	ld	r24, Z
 566:	8f 7d       	andi	r24, 0xDF	; 223
 568:	80 83       	st	Z, r24
 56a:	ff 91       	pop	r31
 56c:	ef 91       	pop	r30
 56e:	8f 91       	pop	r24
 570:	0f 90       	pop	r0
 572:	0f be       	out	0x3f, r0	; 63
 574:	0f 90       	pop	r0
 576:	1f 90       	pop	r1
 578:	18 95       	reti

0000057a <__vector_18>:
 57a:	1f 92       	push	r1
 57c:	0f 92       	push	r0
 57e:	0f b6       	in	r0, 0x3f	; 63
 580:	0f 92       	push	r0
 582:	11 24       	eor	r1, r1
 584:	2f 93       	push	r18
 586:	3f 93       	push	r19
 588:	4f 93       	push	r20
 58a:	5f 93       	push	r21
 58c:	6f 93       	push	r22
 58e:	7f 93       	push	r23
 590:	8f 93       	push	r24
 592:	9f 93       	push	r25
 594:	af 93       	push	r26
 596:	bf 93       	push	r27
 598:	ef 93       	push	r30
 59a:	ff 93       	push	r31
 59c:	80 91 c6 00 	lds	r24, 0x00C6	; 0x8000c6 <__TEXT_REGION_LENGTH__+0x7f80c6>
 5a0:	40 de       	rcall	.-896    	; 0x222 <PushQueue>
 5a2:	ff 91       	pop	r31
 5a4:	ef 91       	pop	r30
 5a6:	bf 91       	pop	r27
 5a8:	af 91       	pop	r26
 5aa:	9f 91       	pop	r25
 5ac:	8f 91       	pop	r24
 5ae:	7f 91       	pop	r23
 5b0:	6f 91       	pop	r22
 5b2:	5f 91       	pop	r21
 5b4:	4f 91       	pop	r20
 5b6:	3f 91       	pop	r19
 5b8:	2f 91       	pop	r18
 5ba:	0f 90       	pop	r0
 5bc:	0f be       	out	0x3f, r0	; 63
 5be:	0f 90       	pop	r0
 5c0:	1f 90       	pop	r1
 5c2:	18 95       	reti

000005c4 <ShootP1>:
}


void ShootP1 (void)
{
	Matriz_P2[ijoy][jjoy] = hundido;
 5c4:	80 91 4d 01 	lds	r24, 0x014D	; 0x80014d <ijoy>
 5c8:	90 91 4e 01 	lds	r25, 0x014E	; 0x80014e <ijoy+0x1>
 5cc:	e0 91 4f 01 	lds	r30, 0x014F	; 0x80014f <jjoy>
 5d0:	f0 91 50 01 	lds	r31, 0x0150	; 0x800150 <jjoy+0x1>
 5d4:	9f 01       	movw	r18, r30
 5d6:	22 0f       	add	r18, r18
 5d8:	33 1f       	adc	r19, r19
 5da:	e2 0f       	add	r30, r18
 5dc:	f3 1f       	adc	r31, r19
 5de:	9c 01       	movw	r18, r24
 5e0:	22 0f       	add	r18, r18
 5e2:	33 1f       	adc	r19, r19
 5e4:	82 0f       	add	r24, r18
 5e6:	93 1f       	adc	r25, r19
 5e8:	88 0f       	add	r24, r24
 5ea:	99 1f       	adc	r25, r25
 5ec:	88 0f       	add	r24, r24
 5ee:	99 1f       	adc	r25, r25
 5f0:	88 0f       	add	r24, r24
 5f2:	99 1f       	adc	r25, r25
 5f4:	e8 0f       	add	r30, r24
 5f6:	f9 1f       	adc	r31, r25
 5f8:	e3 5e       	subi	r30, 0xE3	; 227
 5fa:	fd 4f       	sbci	r31, 0xFD	; 253
 5fc:	80 91 1f 01 	lds	r24, 0x011F	; 0x80011f <hundido>
 600:	90 91 20 01 	lds	r25, 0x0120	; 0x800120 <hundido+0x1>
 604:	a0 91 21 01 	lds	r26, 0x0121	; 0x800121 <hundido+0x2>
 608:	80 83       	st	Z, r24
 60a:	91 83       	std	Z+1, r25	; 0x01
 60c:	a2 83       	std	Z+2, r26	; 0x02
	Player1_Hits += 1;
 60e:	80 91 42 01 	lds	r24, 0x0142	; 0x800142 <Player1_Hits>
 612:	8f 5f       	subi	r24, 0xFF	; 255
 614:	80 93 42 01 	sts	0x0142, r24	; 0x800142 <Player1_Hits>
 618:	08 95       	ret

0000061a <ShootP2>:
}

void ShootP2 (void)
{
	Matriz_P1[ijoy][jjoy] = hundido;
 61a:	80 91 4d 01 	lds	r24, 0x014D	; 0x80014d <ijoy>
 61e:	90 91 4e 01 	lds	r25, 0x014E	; 0x80014e <ijoy+0x1>
 622:	e0 91 4f 01 	lds	r30, 0x014F	; 0x80014f <jjoy>
 626:	f0 91 50 01 	lds	r31, 0x0150	; 0x800150 <jjoy+0x1>
 62a:	9f 01       	movw	r18, r30
 62c:	22 0f       	add	r18, r18
 62e:	33 1f       	adc	r19, r19
 630:	e2 0f       	add	r30, r18
 632:	f3 1f       	adc	r31, r19
 634:	9c 01       	movw	r18, r24
 636:	22 0f       	add	r18, r18
 638:	33 1f       	adc	r19, r19
 63a:	82 0f       	add	r24, r18
 63c:	93 1f       	adc	r25, r19
 63e:	88 0f       	add	r24, r24
 640:	99 1f       	adc	r25, r25
 642:	88 0f       	add	r24, r24
 644:	99 1f       	adc	r25, r25
 646:	88 0f       	add	r24, r24
 648:	99 1f       	adc	r25, r25
 64a:	e8 0f       	add	r30, r24
 64c:	f9 1f       	adc	r31, r25
 64e:	e3 5a       	subi	r30, 0xA3	; 163
 650:	fe 4f       	sbci	r31, 0xFE	; 254
 652:	80 91 1f 01 	lds	r24, 0x011F	; 0x80011f <hundido>
 656:	90 91 20 01 	lds	r25, 0x0120	; 0x800120 <hundido+0x1>
 65a:	a0 91 21 01 	lds	r26, 0x0121	; 0x800121 <hundido+0x2>
 65e:	80 83       	st	Z, r24
 660:	91 83       	std	Z+1, r25	; 0x01
 662:	a2 83       	std	Z+2, r26	; 0x02
	Player2_Hits += 1;
 664:	80 91 41 01 	lds	r24, 0x0141	; 0x800141 <Player2_Hits>
 668:	8f 5f       	subi	r24, 0xFF	; 255
 66a:	80 93 41 01 	sts	0x0141, r24	; 0x800141 <Player2_Hits>
 66e:	08 95       	ret

00000670 <Mostrar_Matriz_2>:
	_delay_ms(2000);
}


void Mostrar_Matriz_2(void)
{
 670:	cf 93       	push	r28
 672:	df 93       	push	r29
 674:	ed e1       	ldi	r30, 0x1D	; 29
 676:	f2 e0       	ldi	r31, 0x02	; 2
 678:	6f ed       	ldi	r22, 0xDF	; 223
 67a:	72 e0       	ldi	r23, 0x02	; 2
 67c:	cd ed       	ldi	r28, 0xDD	; 221
 67e:	d2 e0       	ldi	r29, 0x02	; 2
 680:	0f c0       	rjmp	.+30     	; 0x6a0 <Mostrar_Matriz_2+0x30>
	for (int i=0; i<=7; i++)
		for (int j=0; j<=7; j++)
			Matriz_RGB[i][j] = Matriz_P2[i][j];
 682:	21 91       	ld	r18, Z+
 684:	31 91       	ld	r19, Z+
 686:	41 91       	ld	r20, Z+
 688:	2d 93       	st	X+, r18
 68a:	3d 93       	st	X+, r19
 68c:	4d 93       	st	X+, r20


void Mostrar_Matriz_2(void)
{
	for (int i=0; i<=7; i++)
		for (int j=0; j<=7; j++)
 68e:	e8 17       	cp	r30, r24
 690:	f9 07       	cpc	r31, r25
 692:	b9 f7       	brne	.-18     	; 0x682 <Mostrar_Matriz_2+0x12>
 694:	68 5e       	subi	r22, 0xE8	; 232
 696:	7f 4f       	sbci	r23, 0xFF	; 255
 698:	fc 01       	movw	r30, r24
}


void Mostrar_Matriz_2(void)
{
	for (int i=0; i<=7; i++)
 69a:	c8 17       	cp	r28, r24
 69c:	d9 07       	cpc	r29, r25
 69e:	21 f0       	breq	.+8      	; 0x6a8 <Mostrar_Matriz_2+0x38>
 6a0:	cf 01       	movw	r24, r30
 6a2:	48 96       	adiw	r24, 0x18	; 24
	_delay_ms(2000);
}


void Mostrar_Matriz_2(void)
{
 6a4:	db 01       	movw	r26, r22
 6a6:	ed cf       	rjmp	.-38     	; 0x682 <Mostrar_Matriz_2+0x12>
	for (int i=0; i<=7; i++)
		for (int j=0; j<=7; j++)
			Matriz_RGB[i][j] = Matriz_P2[i][j];
}
 6a8:	df 91       	pop	r29
 6aa:	cf 91       	pop	r28
 6ac:	08 95       	ret

000006ae <Mostrar_Matriz_1>:

void Mostrar_Matriz_1(void)
{
 6ae:	cf 93       	push	r28
 6b0:	df 93       	push	r29
 6b2:	ed e5       	ldi	r30, 0x5D	; 93
 6b4:	f1 e0       	ldi	r31, 0x01	; 1
 6b6:	6f ed       	ldi	r22, 0xDF	; 223
 6b8:	72 e0       	ldi	r23, 0x02	; 2
 6ba:	cd e1       	ldi	r28, 0x1D	; 29
 6bc:	d2 e0       	ldi	r29, 0x02	; 2
 6be:	0f c0       	rjmp	.+30     	; 0x6de <Mostrar_Matriz_1+0x30>
	for (int i=0; i<=7; i++)
		for (int j=0; j<=7; j++)
			Matriz_RGB[i][j] = Matriz_P1[i][j];
 6c0:	21 91       	ld	r18, Z+
 6c2:	31 91       	ld	r19, Z+
 6c4:	41 91       	ld	r20, Z+
 6c6:	2d 93       	st	X+, r18
 6c8:	3d 93       	st	X+, r19
 6ca:	4d 93       	st	X+, r20
}

void Mostrar_Matriz_1(void)
{
	for (int i=0; i<=7; i++)
		for (int j=0; j<=7; j++)
 6cc:	e8 17       	cp	r30, r24
 6ce:	f9 07       	cpc	r31, r25
 6d0:	b9 f7       	brne	.-18     	; 0x6c0 <Mostrar_Matriz_1+0x12>
 6d2:	68 5e       	subi	r22, 0xE8	; 232
 6d4:	7f 4f       	sbci	r23, 0xFF	; 255
 6d6:	fc 01       	movw	r30, r24
			Matriz_RGB[i][j] = Matriz_P2[i][j];
}

void Mostrar_Matriz_1(void)
{
	for (int i=0; i<=7; i++)
 6d8:	c8 17       	cp	r28, r24
 6da:	d9 07       	cpc	r29, r25
 6dc:	21 f0       	breq	.+8      	; 0x6e6 <Mostrar_Matriz_1+0x38>
 6de:	cf 01       	movw	r24, r30
 6e0:	48 96       	adiw	r24, 0x18	; 24
		for (int j=0; j<=7; j++)
			Matriz_RGB[i][j] = Matriz_P2[i][j];
}

void Mostrar_Matriz_1(void)
{
 6e2:	db 01       	movw	r26, r22
 6e4:	ed cf       	rjmp	.-38     	; 0x6c0 <Mostrar_Matriz_1+0x12>
	for (int i=0; i<=7; i++)
		for (int j=0; j<=7; j++)
			Matriz_RGB[i][j] = Matriz_P1[i][j];
}
 6e6:	df 91       	pop	r29
 6e8:	cf 91       	pop	r28
 6ea:	08 95       	ret

000006ec <clear_disp>:
}
*/

void clear_disp(void)
{
	cli();
 6ec:	f8 94       	cli
 6ee:	ef ed       	ldi	r30, 0xDF	; 223
 6f0:	f2 e0       	ldi	r31, 0x02	; 2
 6f2:	4f e9       	ldi	r20, 0x9F	; 159
 6f4:	53 e0       	ldi	r21, 0x03	; 3
 6f6:	10 c0       	rjmp	.+32     	; 0x718 <clear_disp+0x2c>
	for(int r=0;r<=7;r++)
		for(int c=0;c<=7;c++)
				Matriz_RGB[r][c]=Apagado;
 6f8:	80 91 44 01 	lds	r24, 0x0144	; 0x800144 <Apagado>
 6fc:	90 91 45 01 	lds	r25, 0x0145	; 0x800145 <Apagado+0x1>
 700:	a0 91 46 01 	lds	r26, 0x0146	; 0x800146 <Apagado+0x2>
 704:	81 93       	st	Z+, r24
 706:	91 93       	st	Z+, r25
 708:	a1 93       	st	Z+, r26

void clear_disp(void)
{
	cli();
	for(int r=0;r<=7;r++)
		for(int c=0;c<=7;c++)
 70a:	e2 17       	cp	r30, r18
 70c:	f3 07       	cpc	r31, r19
 70e:	a1 f7       	brne	.-24     	; 0x6f8 <clear_disp+0xc>
 710:	f9 01       	movw	r30, r18
*/

void clear_disp(void)
{
	cli();
	for(int r=0;r<=7;r++)
 712:	42 17       	cp	r20, r18
 714:	53 07       	cpc	r21, r19
 716:	21 f0       	breq	.+8      	; 0x720 <clear_disp+0x34>
 718:	9f 01       	movw	r18, r30
 71a:	28 5e       	subi	r18, 0xE8	; 232
 71c:	3f 4f       	sbci	r19, 0xFF	; 255
 71e:	ec cf       	rjmp	.-40     	; 0x6f8 <clear_disp+0xc>
		for(int c=0;c<=7;c++)
				Matriz_RGB[r][c]=Apagado;
	sei();
 720:	78 94       	sei
 722:	08 95       	ret

00000724 <TurnoP1>:
		TurnoP2();
	}
}

void TurnoP1(void)
{
 724:	cf 93       	push	r28
 726:	df 93       	push	r29
	set_P1();
 728:	b4 dd       	rcall	.-1176   	; 0x292 <set_P1>
	ispressed = 1;
 72a:	81 e0       	ldi	r24, 0x01	; 1
 72c:	90 e0       	ldi	r25, 0x00	; 0
 72e:	90 93 4c 01 	sts	0x014C, r25	; 0x80014c <ispressed+0x1>
 732:	80 93 4b 01 	sts	0x014B, r24	; 0x80014b <ispressed>
    milliseconds can be achieved.
 */
void
_delay_loop_2(uint16_t __count)
{
	__asm__ volatile (
 736:	c0 e9       	ldi	r28, 0x90	; 144
 738:	d1 e0       	ldi	r29, 0x01	; 1
	while (ispressed != 0)
 73a:	47 c0       	rjmp	.+142    	; 0x7ca <TurnoP1+0xa6>
	{
		if (ContadorPuntero < 90)
 73c:	80 91 13 01 	lds	r24, 0x0113	; 0x800113 <ContadorPuntero>
 740:	90 91 14 01 	lds	r25, 0x0114	; 0x800114 <ContadorPuntero+0x1>
 744:	8a 35       	cpi	r24, 0x5A	; 90
 746:	91 05       	cpc	r25, r1
		{
			Mostrar_Matriz_2();
 748:	98 f5       	brcc	.+102    	; 0x7b0 <TurnoP1+0x8c>
 74a:	92 df       	rcall	.-220    	; 0x670 <Mostrar_Matriz_2>
			Matriz_RGB[ijoy][jjoy] = punteroP1;
 74c:	80 91 4d 01 	lds	r24, 0x014D	; 0x80014d <ijoy>
 750:	90 91 4e 01 	lds	r25, 0x014E	; 0x80014e <ijoy+0x1>
 754:	20 91 4f 01 	lds	r18, 0x014F	; 0x80014f <jjoy>
 758:	30 91 50 01 	lds	r19, 0x0150	; 0x800150 <jjoy+0x1>
 75c:	f9 01       	movw	r30, r18
 75e:	ee 0f       	add	r30, r30
 760:	ff 1f       	adc	r31, r31
 762:	e2 0f       	add	r30, r18
 764:	f3 1f       	adc	r31, r19
 766:	9c 01       	movw	r18, r24
 768:	22 0f       	add	r18, r18
 76a:	33 1f       	adc	r19, r19
 76c:	82 0f       	add	r24, r18
 76e:	93 1f       	adc	r25, r19
 770:	88 0f       	add	r24, r24
 772:	99 1f       	adc	r25, r25
 774:	88 0f       	add	r24, r24
 776:	99 1f       	adc	r25, r25
 778:	88 0f       	add	r24, r24
 77a:	99 1f       	adc	r25, r25
 77c:	e8 0f       	add	r30, r24
 77e:	f9 1f       	adc	r31, r25
 780:	e1 52       	subi	r30, 0x21	; 33
 782:	fd 4f       	sbci	r31, 0xFD	; 253
 784:	80 91 1c 01 	lds	r24, 0x011C	; 0x80011c <punteroP1>
 788:	90 91 1d 01 	lds	r25, 0x011D	; 0x80011d <punteroP1+0x1>
 78c:	a0 91 1e 01 	lds	r26, 0x011E	; 0x80011e <punteroP1+0x2>
 790:	80 83       	st	Z, r24
 792:	91 83       	std	Z+1, r25	; 0x01
 794:	a2 83       	std	Z+2, r26	; 0x02
 796:	84 ef       	ldi	r24, 0xF4	; 244
 798:	91 e0       	ldi	r25, 0x01	; 1
 79a:	fe 01       	movw	r30, r28
 79c:	31 97       	sbiw	r30, 0x01	; 1
 79e:	f1 f7       	brne	.-4      	; 0x79c <TurnoP1+0x78>
 7a0:	01 97       	sbiw	r24, 0x01	; 1
		__ticks = 1;
	else if (__tmp > 65535)
	{
		//	__ticks = requested delay in 1/10 ms
		__ticks = (uint16_t) (__ms * 10.0);
		while(__ticks)
 7a2:	d9 f7       	brne	.-10     	; 0x79a <TurnoP1+0x76>
			_delay_ms(50);
			wrt_ws2812(p2disp);
 7a4:	80 91 dd 02 	lds	r24, 0x02DD	; 0x8002dd <p2disp>
 7a8:	90 91 de 02 	lds	r25, 0x02DE	; 0x8002de <p2disp+0x1>
 7ac:	b4 dc       	rcall	.-1688   	; 0x116 <wrt_ws2812>
		}
		
		else
		{
			Mostrar_Matriz_2();
 7ae:	0d c0       	rjmp	.+26     	; 0x7ca <TurnoP1+0xa6>
 7b0:	5f df       	rcall	.-322    	; 0x670 <Mostrar_Matriz_2>
 7b2:	84 ef       	ldi	r24, 0xF4	; 244
 7b4:	91 e0       	ldi	r25, 0x01	; 1
 7b6:	fe 01       	movw	r30, r28
 7b8:	31 97       	sbiw	r30, 0x01	; 1
 7ba:	f1 f7       	brne	.-4      	; 0x7b8 <TurnoP1+0x94>
 7bc:	01 97       	sbiw	r24, 0x01	; 1
 7be:	d9 f7       	brne	.-10     	; 0x7b6 <TurnoP1+0x92>
			_delay_ms(50);
			wrt_ws2812(p2disp);
 7c0:	80 91 dd 02 	lds	r24, 0x02DD	; 0x8002dd <p2disp>
 7c4:	90 91 de 02 	lds	r25, 0x02DE	; 0x8002de <p2disp+0x1>
 7c8:	a6 dc       	rcall	.-1716   	; 0x116 <wrt_ws2812>

void TurnoP1(void)
{
	set_P1();
	ispressed = 1;
	while (ispressed != 0)
 7ca:	80 91 4b 01 	lds	r24, 0x014B	; 0x80014b <ispressed>
 7ce:	90 91 4c 01 	lds	r25, 0x014C	; 0x80014c <ispressed+0x1>
			_delay_ms(50);
			wrt_ws2812(p2disp);
		}
	}
	
	clear_disp();
 7d2:	89 2b       	or	r24, r25
 7d4:	09 f0       	breq	.+2      	; 0x7d8 <TurnoP1+0xb4>
	ShootP1();
 7d6:	b2 cf       	rjmp	.-156    	; 0x73c <TurnoP1+0x18>
 7d8:	89 df       	rcall	.-238    	; 0x6ec <clear_disp>
	Mostrar_Matriz_2();
 7da:	f4 de       	rcall	.-536    	; 0x5c4 <ShootP1>
 7dc:	49 df       	rcall	.-366    	; 0x670 <Mostrar_Matriz_2>
 7de:	88 ec       	ldi	r24, 0xC8	; 200
 7e0:	90 e0       	ldi	r25, 0x00	; 0
 7e2:	20 e9       	ldi	r18, 0x90	; 144
 7e4:	31 e0       	ldi	r19, 0x01	; 1
 7e6:	f9 01       	movw	r30, r18
 7e8:	31 97       	sbiw	r30, 0x01	; 1
 7ea:	f1 f7       	brne	.-4      	; 0x7e8 <TurnoP1+0xc4>
 7ec:	01 97       	sbiw	r24, 0x01	; 1
	
	_delay_ms(20);
	wrt_ws2812(p2disp);
 7ee:	d9 f7       	brne	.-10     	; 0x7e6 <TurnoP1+0xc2>
 7f0:	80 91 dd 02 	lds	r24, 0x02DD	; 0x8002dd <p2disp>
 7f4:	90 91 de 02 	lds	r25, 0x02DE	; 0x8002de <p2disp+0x1>
 7f8:	8e dc       	rcall	.-1764   	; 0x116 <wrt_ws2812>
 7fa:	80 e2       	ldi	r24, 0x20	; 32
 7fc:	9e e4       	ldi	r25, 0x4E	; 78
 7fe:	20 e9       	ldi	r18, 0x90	; 144
 800:	31 e0       	ldi	r19, 0x01	; 1
 802:	f9 01       	movw	r30, r18
 804:	31 97       	sbiw	r30, 0x01	; 1
 806:	f1 f7       	brne	.-4      	; 0x804 <__DATA_REGION_LENGTH__+0x4>
 808:	01 97       	sbiw	r24, 0x01	; 1
 80a:	d9 f7       	brne	.-10     	; 0x802 <__DATA_REGION_LENGTH__+0x2>
	_delay_ms(2000);
}
 80c:	df 91       	pop	r29
 80e:	cf 91       	pop	r28
 810:	08 95       	ret

00000812 <TurnoP2>:

void TurnoP2(void)
{
 812:	cf 93       	push	r28
 814:	df 93       	push	r29
	set_P2();
 816:	50 dd       	rcall	.-1376   	; 0x2b8 <set_P2>
	ispressed = 1;
 818:	81 e0       	ldi	r24, 0x01	; 1
 81a:	90 e0       	ldi	r25, 0x00	; 0
 81c:	90 93 4c 01 	sts	0x014C, r25	; 0x80014c <ispressed+0x1>
 820:	80 93 4b 01 	sts	0x014B, r24	; 0x80014b <ispressed>
 824:	c0 e9       	ldi	r28, 0x90	; 144
 826:	d1 e0       	ldi	r29, 0x01	; 1
	while (ispressed != 0)
 828:	47 c0       	rjmp	.+142    	; 0x8b8 <TurnoP2+0xa6>
	{
		if (ContadorPuntero < 90)
 82a:	80 91 13 01 	lds	r24, 0x0113	; 0x800113 <ContadorPuntero>
 82e:	90 91 14 01 	lds	r25, 0x0114	; 0x800114 <ContadorPuntero+0x1>
 832:	8a 35       	cpi	r24, 0x5A	; 90
 834:	91 05       	cpc	r25, r1
		{
			Mostrar_Matriz_1();
 836:	98 f5       	brcc	.+102    	; 0x89e <TurnoP2+0x8c>
 838:	3a df       	rcall	.-396    	; 0x6ae <Mostrar_Matriz_1>
			Matriz_RGB[ijoy][jjoy] = punteroP2;
 83a:	80 91 4d 01 	lds	r24, 0x014D	; 0x80014d <ijoy>
 83e:	90 91 4e 01 	lds	r25, 0x014E	; 0x80014e <ijoy+0x1>
 842:	20 91 4f 01 	lds	r18, 0x014F	; 0x80014f <jjoy>
 846:	30 91 50 01 	lds	r19, 0x0150	; 0x800150 <jjoy+0x1>
 84a:	f9 01       	movw	r30, r18
 84c:	ee 0f       	add	r30, r30
 84e:	ff 1f       	adc	r31, r31
 850:	e2 0f       	add	r30, r18
 852:	f3 1f       	adc	r31, r19
 854:	9c 01       	movw	r18, r24
 856:	22 0f       	add	r18, r18
 858:	33 1f       	adc	r19, r19
 85a:	82 0f       	add	r24, r18
 85c:	93 1f       	adc	r25, r19
 85e:	88 0f       	add	r24, r24
 860:	99 1f       	adc	r25, r25
 862:	88 0f       	add	r24, r24
 864:	99 1f       	adc	r25, r25
 866:	88 0f       	add	r24, r24
 868:	99 1f       	adc	r25, r25
 86a:	e8 0f       	add	r30, r24
 86c:	f9 1f       	adc	r31, r25
 86e:	e1 52       	subi	r30, 0x21	; 33
 870:	fd 4f       	sbci	r31, 0xFD	; 253
 872:	80 91 19 01 	lds	r24, 0x0119	; 0x800119 <punteroP2>
 876:	90 91 1a 01 	lds	r25, 0x011A	; 0x80011a <punteroP2+0x1>
 87a:	a0 91 1b 01 	lds	r26, 0x011B	; 0x80011b <punteroP2+0x2>
 87e:	80 83       	st	Z, r24
 880:	91 83       	std	Z+1, r25	; 0x01
 882:	a2 83       	std	Z+2, r26	; 0x02
 884:	84 ef       	ldi	r24, 0xF4	; 244
 886:	91 e0       	ldi	r25, 0x01	; 1
 888:	fe 01       	movw	r30, r28
 88a:	31 97       	sbiw	r30, 0x01	; 1
 88c:	f1 f7       	brne	.-4      	; 0x88a <TurnoP2+0x78>
 88e:	01 97       	sbiw	r24, 0x01	; 1
 890:	d9 f7       	brne	.-10     	; 0x888 <TurnoP2+0x76>
			_delay_ms(50);
			wrt_ws2812(p2disp);
 892:	80 91 dd 02 	lds	r24, 0x02DD	; 0x8002dd <p2disp>
 896:	90 91 de 02 	lds	r25, 0x02DE	; 0x8002de <p2disp+0x1>
 89a:	3d dc       	rcall	.-1926   	; 0x116 <wrt_ws2812>
		}
		
		else
		{
			Mostrar_Matriz_1();
 89c:	0d c0       	rjmp	.+26     	; 0x8b8 <TurnoP2+0xa6>
 89e:	07 df       	rcall	.-498    	; 0x6ae <Mostrar_Matriz_1>
 8a0:	84 ef       	ldi	r24, 0xF4	; 244
 8a2:	91 e0       	ldi	r25, 0x01	; 1
 8a4:	fe 01       	movw	r30, r28
 8a6:	31 97       	sbiw	r30, 0x01	; 1
 8a8:	f1 f7       	brne	.-4      	; 0x8a6 <TurnoP2+0x94>
 8aa:	01 97       	sbiw	r24, 0x01	; 1
 8ac:	d9 f7       	brne	.-10     	; 0x8a4 <TurnoP2+0x92>
			_delay_ms(50);
			wrt_ws2812(p2disp);
 8ae:	80 91 dd 02 	lds	r24, 0x02DD	; 0x8002dd <p2disp>
 8b2:	90 91 de 02 	lds	r25, 0x02DE	; 0x8002de <p2disp+0x1>
 8b6:	2f dc       	rcall	.-1954   	; 0x116 <wrt_ws2812>

void TurnoP2(void)
{
	set_P2();
	ispressed = 1;
	while (ispressed != 0)
 8b8:	80 91 4b 01 	lds	r24, 0x014B	; 0x80014b <ispressed>
 8bc:	90 91 4c 01 	lds	r25, 0x014C	; 0x80014c <ispressed+0x1>
			_delay_ms(50);
			wrt_ws2812(p2disp);
		}
	}
	
	clear_disp();
 8c0:	89 2b       	or	r24, r25
 8c2:	09 f0       	breq	.+2      	; 0x8c6 <TurnoP2+0xb4>
	ShootP2();
 8c4:	b2 cf       	rjmp	.-156    	; 0x82a <TurnoP2+0x18>
 8c6:	12 df       	rcall	.-476    	; 0x6ec <clear_disp>
	Mostrar_Matriz_1();
 8c8:	a8 de       	rcall	.-688    	; 0x61a <ShootP2>
 8ca:	f1 de       	rcall	.-542    	; 0x6ae <Mostrar_Matriz_1>
 8cc:	88 ec       	ldi	r24, 0xC8	; 200
 8ce:	90 e0       	ldi	r25, 0x00	; 0
 8d0:	20 e9       	ldi	r18, 0x90	; 144
 8d2:	31 e0       	ldi	r19, 0x01	; 1
 8d4:	f9 01       	movw	r30, r18
 8d6:	31 97       	sbiw	r30, 0x01	; 1
 8d8:	f1 f7       	brne	.-4      	; 0x8d6 <TurnoP2+0xc4>
 8da:	01 97       	sbiw	r24, 0x01	; 1
	
	_delay_ms(20);
	wrt_ws2812(p2disp);
 8dc:	d9 f7       	brne	.-10     	; 0x8d4 <TurnoP2+0xc2>
 8de:	80 91 dd 02 	lds	r24, 0x02DD	; 0x8002dd <p2disp>
 8e2:	90 91 de 02 	lds	r25, 0x02DE	; 0x8002de <p2disp+0x1>
 8e6:	17 dc       	rcall	.-2002   	; 0x116 <wrt_ws2812>
 8e8:	80 e2       	ldi	r24, 0x20	; 32
 8ea:	9e e4       	ldi	r25, 0x4E	; 78
 8ec:	20 e9       	ldi	r18, 0x90	; 144
 8ee:	31 e0       	ldi	r19, 0x01	; 1
 8f0:	f9 01       	movw	r30, r18
 8f2:	31 97       	sbiw	r30, 0x01	; 1
 8f4:	f1 f7       	brne	.-4      	; 0x8f2 <TurnoP2+0xe0>
 8f6:	01 97       	sbiw	r24, 0x01	; 1
 8f8:	d9 f7       	brne	.-10     	; 0x8f0 <TurnoP2+0xde>
	_delay_ms(2000);
}
 8fa:	df 91       	pop	r29
 8fc:	cf 91       	pop	r28
 8fe:	08 95       	ret

00000900 <Game_Logic>:
}


void Game_Logic(void)
{
	if (Turno == Turn1)
 900:	80 91 12 01 	lds	r24, 0x0112	; 0x800112 <Turno>
 904:	81 30       	cpi	r24, 0x01	; 1
 906:	11 f4       	brne	.+4      	; 0x90c <Game_Logic+0xc>
	{
		TurnoP1();
 908:	0d cf       	rjmp	.-486    	; 0x724 <TurnoP1>
 90a:	08 95       	ret
	}
		
	else if (Turno == Turn2)
 90c:	80 91 12 01 	lds	r24, 0x0112	; 0x800112 <Turno>
 910:	82 30       	cpi	r24, 0x02	; 2
	{
		TurnoP2();
 912:	09 f4       	brne	.+2      	; 0x916 <Game_Logic+0x16>
 914:	7e cf       	rjmp	.-260    	; 0x812 <TurnoP2>
 916:	08 95       	ret

00000918 <main>:



int main (void)
{
			init_ws2812();		//Initialize RGB Display driver
 918:	f4 db       	rcall	.-2072   	; 0x102 <init_ws2812>
			init_RTI();			//Initialize Periodic Real Time Interrupt(Timer)
 91a:	58 dd       	rcall	.-1360   	; 0x3cc <init_RTI>
			UART_Init();		//Initialize serial port driver (UART)
 91c:	e8 dd       	rcall	.-1072   	; 0x4ee <UART_Init>
			adc_init();			//Initialize Analog to digital converter (Joystick)
 91e:	48 dc       	rcall	.-1904   	; 0x1b0 <adc_init>
 920:	e7 db       	rcall	.-2098   	; 0xf0 <joybutton_Init>
			joybutton_Init();
 922:	a1 dc       	rcall	.-1726   	; 0x266 <display_init>
 924:	8f ed       	ldi	r24, 0xDF	; 223
			display_init();
 926:	92 e0       	ldi	r25, 0x02	; 2
 928:	90 93 de 02 	sts	0x02DE, r25	; 0x8002de <p2disp+0x1>
		
			p2disp=&Matriz_RGB[0][0];
 92c:	80 93 dd 02 	sts	0x02DD, r24	; 0x8002dd <p2disp>
 930:	fc 01       	movw	r30, r24
 932:	4f e9       	ldi	r20, 0x9F	; 159
 934:	53 e0       	ldi	r21, 0x03	; 3
 936:	10 c0       	rjmp	.+32     	; 0x958 <main+0x40>
 938:	80 91 44 01 	lds	r24, 0x0144	; 0x800144 <Apagado>
 93c:	90 91 45 01 	lds	r25, 0x0145	; 0x800145 <Apagado+0x1>
			
			
		for(int r=0;r<=7;r++)
			for(int c=0;c<=7;c++)
				Matriz_RGB[r][c]=Apagado;
 940:	a0 91 46 01 	lds	r26, 0x0146	; 0x800146 <Apagado+0x2>
 944:	81 93       	st	Z+, r24
 946:	91 93       	st	Z+, r25
 948:	a1 93       	st	Z+, r26
 94a:	2e 17       	cp	r18, r30
 94c:	3f 07       	cpc	r19, r31
 94e:	a1 f7       	brne	.-24     	; 0x938 <main+0x20>
		
			p2disp=&Matriz_RGB[0][0];
			
			
		for(int r=0;r<=7;r++)
			for(int c=0;c<=7;c++)
 950:	f9 01       	movw	r30, r18
 952:	24 17       	cp	r18, r20
 954:	35 07       	cpc	r19, r21
 956:	21 f0       	breq	.+8      	; 0x960 <main+0x48>
			display_init();
		
			p2disp=&Matriz_RGB[0][0];
			
			
		for(int r=0;r<=7;r++)
 958:	9f 01       	movw	r18, r30
 95a:	28 5e       	subi	r18, 0xE8	; 232
 95c:	3f 4f       	sbci	r19, 0xFF	; 255
 95e:	ec cf       	rjmp	.-40     	; 0x938 <main+0x20>
 960:	82 e2       	ldi	r24, 0x22	; 34
 962:	91 e0       	ldi	r25, 0x01	; 1
			for(int c=0;c<=7;c++)
				Matriz_RGB[r][c]=Apagado;
				
		UART_putstring("Hola");
 964:	e3 dd       	rcall	.-1082   	; 0x52c <UART_putstring>
 966:	ed e5       	ldi	r30, 0x5D	; 93
 968:	f1 e0       	ldi	r31, 0x01	; 1
 96a:	4d e1       	ldi	r20, 0x1D	; 29
 96c:	52 e0       	ldi	r21, 0x02	; 2
 96e:	15 c0       	rjmp	.+42     	; 0x99a <main+0x82>
 970:	80 91 44 01 	lds	r24, 0x0144	; 0x800144 <Apagado>
 974:	90 91 45 01 	lds	r25, 0x0145	; 0x800145 <Apagado+0x1>
 			
 		for(int r=0;r<=7;r++)
			for(int c=0;c<=7;c++)
				Matriz_P1[r][c]=Apagado;
 978:	a0 91 46 01 	lds	r26, 0x0146	; 0x800146 <Apagado+0x2>
 97c:	81 93       	st	Z+, r24
 97e:	91 93       	st	Z+, r25
 980:	a1 93       	st	Z+, r26
 982:	e2 17       	cp	r30, r18
 984:	f3 07       	cpc	r31, r19
 986:	a1 f7       	brne	.-24     	; 0x970 <main+0x58>
				Matriz_RGB[r][c]=Apagado;
				
		UART_putstring("Hola");
 			
 		for(int r=0;r<=7;r++)
			for(int c=0;c<=7;c++)
 988:	f9 01       	movw	r30, r18
 98a:	42 17       	cp	r20, r18
 98c:	53 07       	cpc	r21, r19
 98e:	29 f4       	brne	.+10     	; 0x99a <main+0x82>
			for(int c=0;c<=7;c++)
				Matriz_RGB[r][c]=Apagado;
				
		UART_putstring("Hola");
 			
 		for(int r=0;r<=7;r++)
 990:	ed e1       	ldi	r30, 0x1D	; 29
 992:	f2 e0       	ldi	r31, 0x02	; 2
 994:	4d ed       	ldi	r20, 0xDD	; 221
 996:	52 e0       	ldi	r21, 0x02	; 2
 998:	14 c0       	rjmp	.+40     	; 0x9c2 <main+0xaa>
 99a:	9f 01       	movw	r18, r30
 99c:	28 5e       	subi	r18, 0xE8	; 232
 99e:	3f 4f       	sbci	r19, 0xFF	; 255
 9a0:	e7 cf       	rjmp	.-50     	; 0x970 <main+0x58>
 9a2:	80 91 44 01 	lds	r24, 0x0144	; 0x800144 <Apagado>
 9a6:	90 91 45 01 	lds	r25, 0x0145	; 0x800145 <Apagado+0x1>
			for(int c=0;c<=7;c++)
				Matriz_P1[r][c]=Apagado;
			
			for(int r=0;r<=7;r++)
				for(int c=0;c<=7;c++)
					Matriz_P2[r][c]=Apagado;
 9aa:	a0 91 46 01 	lds	r26, 0x0146	; 0x800146 <Apagado+0x2>
 9ae:	81 93       	st	Z+, r24
 9b0:	91 93       	st	Z+, r25
 9b2:	a1 93       	st	Z+, r26
 9b4:	e2 17       	cp	r30, r18
 9b6:	f3 07       	cpc	r31, r19
 9b8:	a1 f7       	brne	.-24     	; 0x9a2 <main+0x8a>
 		for(int r=0;r<=7;r++)
			for(int c=0;c<=7;c++)
				Matriz_P1[r][c]=Apagado;
			
			for(int r=0;r<=7;r++)
				for(int c=0;c<=7;c++)
 9ba:	f9 01       	movw	r30, r18
 9bc:	24 17       	cp	r18, r20
 9be:	35 07       	cpc	r19, r21
 9c0:	21 f0       	breq	.+8      	; 0x9ca <main+0xb2>
 			
 		for(int r=0;r<=7;r++)
			for(int c=0;c<=7;c++)
				Matriz_P1[r][c]=Apagado;
			
			for(int r=0;r<=7;r++)
 9c2:	9f 01       	movw	r18, r30
 9c4:	28 5e       	subi	r18, 0xE8	; 232
 9c6:	3f 4f       	sbci	r19, 0xFF	; 255
 9c8:	ec cf       	rjmp	.-40     	; 0x9a2 <main+0x8a>
 9ca:	90 de       	rcall	.-736    	; 0x6ec <clear_disp>
				for(int c=0;c<=7;c++)
					Matriz_P2[r][c]=Apagado;
					
		clear_disp();
 9cc:	78 94       	sei
 9ce:	98 df       	rcall	.-208    	; 0x900 <Game_Logic>
// 			Matriz_P2[k][7]=hundido;
// 			}
			
			
			
			sei();					// Enable global Interrupts
 9d0:	fe cf       	rjmp	.-4      	; 0x9ce <main+0xb6>

000009d2 <_exit>:

			while(1)
			{
				Game_Logic();
 9d2:	f8 94       	cli

000009d4 <__stop_program>:
 9d4:	ff cf       	rjmp	.-2      	; 0x9d4 <__stop_program>
